ARM GAS  C:\Users\skipi\AppData\Local\Temp\ccS8HZje.s 			page 1


   1              		.cpu cortex-m7
   2              		.eabi_attribute 28, 1
   3              		.eabi_attribute 20, 1
   4              		.eabi_attribute 21, 1
   5              		.eabi_attribute 23, 3
   6              		.eabi_attribute 24, 1
   7              		.eabi_attribute 25, 1
   8              		.eabi_attribute 26, 1
   9              		.eabi_attribute 30, 2
  10              		.eabi_attribute 34, 1
  11              		.eabi_attribute 18, 4
  12              		.file	"main.cpp"
  13              		.text
  14              	.Ltext0:
  15              		.cfi_sections	.debug_frame
  16              		.section	.text._ZN5daisy9DaisySeedD2Ev,"axG",%progbits,_ZN5daisy9DaisySeedD5Ev,comdat
  17              		.align	1
  18              		.p2align 2,,3
  19              		.weak	_ZN5daisy9DaisySeedD2Ev
  20              		.arch armv7e-m
  21              		.syntax unified
  22              		.thumb
  23              		.thumb_func
  24              		.fpu fpv5-d16
  26              	_ZN5daisy9DaisySeedD2Ev:
  27              	.LVL0:
  28              	.LFB2731:
  29              		.file 1 "../libDaisy/src/daisy_seed.h"
   1:../libDaisy/src/daisy_seed.h **** #pragma once
   2:../libDaisy/src/daisy_seed.h **** #ifndef DSY_SEED_H
   3:../libDaisy/src/daisy_seed.h **** #define DSY_SEED_H
   4:../libDaisy/src/daisy_seed.h **** 
   5:../libDaisy/src/daisy_seed.h **** #include "daisy.h"
   6:../libDaisy/src/daisy_seed.h **** 
   7:../libDaisy/src/daisy_seed.h **** //Uncomment this out if you're still using the rev2 hardware
   8:../libDaisy/src/daisy_seed.h **** //#define SEED_REV2
   9:../libDaisy/src/daisy_seed.h **** 
  10:../libDaisy/src/daisy_seed.h **** namespace daisy
  11:../libDaisy/src/daisy_seed.h **** {
  12:../libDaisy/src/daisy_seed.h **** /**
  13:../libDaisy/src/daisy_seed.h ****    @brief This is the higher-level interface for the Daisy board. \n 
  14:../libDaisy/src/daisy_seed.h ****     All basic peripheral configuration/initialization is setup here. \n
  15:../libDaisy/src/daisy_seed.h **** 
  16:../libDaisy/src/daisy_seed.h ****    @ingroup boards
  17:../libDaisy/src/daisy_seed.h **** */
  18:../libDaisy/src/daisy_seed.h **** class DaisySeed
  19:../libDaisy/src/daisy_seed.h **** {
  20:../libDaisy/src/daisy_seed.h ****   public:
  21:../libDaisy/src/daisy_seed.h ****     DaisySeed() {}
  22:../libDaisy/src/daisy_seed.h ****     ~DaisySeed() {}
  30              		.loc 1 22 5 view -0
  31              		.cfi_startproc
  32              		@ args = 0, pretend = 0, frame = 0
  33              		@ frame_needed = 0, uses_anonymous_args = 0
  34              		@ link register save eliminated.
  35              	.LBB292:
  36              	.LBI292:
ARM GAS  C:\Users\skipi\AppData\Local\Temp\ccS8HZje.s 			page 2


  37              		.file 2 "../libDaisy/src/dev/codec_ak4556.h"
   1:../libDaisy/src/dev/codec_ak4556.h **** #pragma once
   2:../libDaisy/src/dev/codec_ak4556.h **** #ifndef DSY_CODEC_AK4556_H
   3:../libDaisy/src/dev/codec_ak4556.h **** #define DSY_CODEC_AK4556_H
   4:../libDaisy/src/dev/codec_ak4556.h **** 
   5:../libDaisy/src/dev/codec_ak4556.h **** #include "daisy_core.h"
   6:../libDaisy/src/dev/codec_ak4556.h **** #include "per/gpio.h"
   7:../libDaisy/src/dev/codec_ak4556.h **** 
   8:../libDaisy/src/dev/codec_ak4556.h **** namespace daisy
   9:../libDaisy/src/dev/codec_ak4556.h **** {
  10:../libDaisy/src/dev/codec_ak4556.h **** /** @brief Ak4556 Codec support 
  11:../libDaisy/src/dev/codec_ak4556.h ****  ** @author shensley
  12:../libDaisy/src/dev/codec_ak4556.h ****  ** @addtogroup codec
  13:../libDaisy/src/dev/codec_ak4556.h ****  ** 
  14:../libDaisy/src/dev/codec_ak4556.h ****  ** I don't see any real reason to have this be more than a function, but in case we want
  15:../libDaisy/src/dev/codec_ak4556.h ****  ** to add other functions down the road I wrapped the function in a class.
  16:../libDaisy/src/dev/codec_ak4556.h ****  ***/
  17:../libDaisy/src/dev/codec_ak4556.h **** class Ak4556
  18:../libDaisy/src/dev/codec_ak4556.h **** {
  19:../libDaisy/src/dev/codec_ak4556.h ****   public:
  20:../libDaisy/src/dev/codec_ak4556.h ****     Ak4556() {}
  21:../libDaisy/src/dev/codec_ak4556.h ****     ~Ak4556() {}
  38              		.loc 2 21 5 view .LVU1
  39              		.loc 2 21 5 is_stmt 0 view .LVU2
  40              	.LBE292:
  41              	.LBB293:
  42              	.LBI293:
  43              		.file 3 "../libDaisy/src/sys/system.h"
   1:../libDaisy/src/sys/system.h **** #ifndef DSY_SYSTEM_H
   2:../libDaisy/src/sys/system.h **** #define DSY_SYSTEM_H
   3:../libDaisy/src/sys/system.h **** 
   4:../libDaisy/src/sys/system.h **** #ifndef UNIT_TEST // for unit tests, a dummy implementation is provided below
   5:../libDaisy/src/sys/system.h **** 
   6:../libDaisy/src/sys/system.h **** #include <cstdint>
   7:../libDaisy/src/sys/system.h **** #include "per/tim.h"
   8:../libDaisy/src/sys/system.h **** 
   9:../libDaisy/src/sys/system.h **** namespace daisy
  10:../libDaisy/src/sys/system.h **** {
  11:../libDaisy/src/sys/system.h **** /** A handle for interacting with the Core System.
  12:../libDaisy/src/sys/system.h ****  ** This includes the Clock tree, MPU, global DMA initialization,
  13:../libDaisy/src/sys/system.h ****  ** cache handling, and any other necessary global initiailzation
  14:../libDaisy/src/sys/system.h ****  **
  15:../libDaisy/src/sys/system.h ****  ** @author shensley
  16:../libDaisy/src/sys/system.h ****  ** @ingroup system
  17:../libDaisy/src/sys/system.h ****  */
  18:../libDaisy/src/sys/system.h **** class System
  19:../libDaisy/src/sys/system.h **** {
  20:../libDaisy/src/sys/system.h ****   public:
  21:../libDaisy/src/sys/system.h ****     /** Contains settings for initializing the System */
  22:../libDaisy/src/sys/system.h ****     struct Config
  23:../libDaisy/src/sys/system.h ****     {
  24:../libDaisy/src/sys/system.h ****         /** Specifies the system clock frequency that feeds APB/AHB clocks, etc. */
  25:../libDaisy/src/sys/system.h ****         enum class SysClkFreq
  26:../libDaisy/src/sys/system.h ****         {
  27:../libDaisy/src/sys/system.h ****             FREQ_400MHZ,
  28:../libDaisy/src/sys/system.h ****             FREQ_480MHZ,
  29:../libDaisy/src/sys/system.h ****         };
ARM GAS  C:\Users\skipi\AppData\Local\Temp\ccS8HZje.s 			page 3


  30:../libDaisy/src/sys/system.h **** 
  31:../libDaisy/src/sys/system.h ****         /** Method to call on the struct to set to defaults
  32:../libDaisy/src/sys/system.h ****          ** CPU Freq set to 400MHz
  33:../libDaisy/src/sys/system.h ****          ** Cache Enabled
  34:../libDaisy/src/sys/system.h ****          ** */
  35:../libDaisy/src/sys/system.h ****         void Defaults()
  36:../libDaisy/src/sys/system.h ****         {
  37:../libDaisy/src/sys/system.h ****             cpu_freq    = SysClkFreq::FREQ_400MHZ;
  38:../libDaisy/src/sys/system.h ****             use_dcache  = true;
  39:../libDaisy/src/sys/system.h ****             use_icache  = true;
  40:../libDaisy/src/sys/system.h ****             skip_clocks = false;
  41:../libDaisy/src/sys/system.h ****         }
  42:../libDaisy/src/sys/system.h **** 
  43:../libDaisy/src/sys/system.h ****         /** Method to call on the struct to set to boost mode:
  44:../libDaisy/src/sys/system.h ****          ** CPU Freq set to 480MHz
  45:../libDaisy/src/sys/system.h ****          ** Cache Enabled
  46:../libDaisy/src/sys/system.h ****          ** */
  47:../libDaisy/src/sys/system.h ****         void Boost()
  48:../libDaisy/src/sys/system.h ****         {
  49:../libDaisy/src/sys/system.h ****             cpu_freq    = SysClkFreq::FREQ_480MHZ;
  50:../libDaisy/src/sys/system.h ****             use_dcache  = true;
  51:../libDaisy/src/sys/system.h ****             use_icache  = true;
  52:../libDaisy/src/sys/system.h ****             skip_clocks = false;
  53:../libDaisy/src/sys/system.h ****         }
  54:../libDaisy/src/sys/system.h **** 
  55:../libDaisy/src/sys/system.h ****         SysClkFreq cpu_freq;
  56:../libDaisy/src/sys/system.h ****         bool       use_dcache;
  57:../libDaisy/src/sys/system.h ****         bool       use_icache;
  58:../libDaisy/src/sys/system.h ****         bool       skip_clocks;
  59:../libDaisy/src/sys/system.h ****     };
  60:../libDaisy/src/sys/system.h **** 
  61:../libDaisy/src/sys/system.h ****     /** Describes the different regions of memory available to the Daisy */
  62:../libDaisy/src/sys/system.h ****     enum MemoryRegion
  63:../libDaisy/src/sys/system.h ****     {
  64:../libDaisy/src/sys/system.h ****         INTERNAL_FLASH = 0,
  65:../libDaisy/src/sys/system.h ****         ITCMRAM,
  66:../libDaisy/src/sys/system.h ****         DTCMRAM,
  67:../libDaisy/src/sys/system.h ****         SRAM_D1,
  68:../libDaisy/src/sys/system.h ****         SRAM_D2,
  69:../libDaisy/src/sys/system.h ****         SRAM_D3,
  70:../libDaisy/src/sys/system.h ****         SDRAM,
  71:../libDaisy/src/sys/system.h ****         QSPI,
  72:../libDaisy/src/sys/system.h ****         INVALID_ADDRESS,
  73:../libDaisy/src/sys/system.h ****     };
  74:../libDaisy/src/sys/system.h **** 
  75:../libDaisy/src/sys/system.h ****     /** Bootloader struct for controlling bootloading parameters */
  76:../libDaisy/src/sys/system.h ****     struct BootInfo
  77:../libDaisy/src/sys/system.h ****     {
  78:../libDaisy/src/sys/system.h ****         enum class Type : uint32_t
  79:../libDaisy/src/sys/system.h ****         {
  80:../libDaisy/src/sys/system.h ****             INVALID      = 0x00000000,
  81:../libDaisy/src/sys/system.h ****             JUMP         = 0xDEADBEEF,
  82:../libDaisy/src/sys/system.h ****             SKIP_TIMEOUT = 0x5AFEB007,
  83:../libDaisy/src/sys/system.h ****             INF_TIMEOUT  = 0xB0074EFA,
  84:../libDaisy/src/sys/system.h ****         } status;
  85:../libDaisy/src/sys/system.h ****         uint32_t data;
  86:../libDaisy/src/sys/system.h ****         enum class Version : uint32_t
ARM GAS  C:\Users\skipi\AppData\Local\Temp\ccS8HZje.s 			page 4


  87:../libDaisy/src/sys/system.h ****         {
  88:../libDaisy/src/sys/system.h ****             LT_v6_0 = 0, // Less than v6.0
  89:../libDaisy/src/sys/system.h ****             NONE,        // No bootloader present
  90:../libDaisy/src/sys/system.h ****             v6_0,        // v6.0
  91:../libDaisy/src/sys/system.h ****             v6_1,        // v6.1 or greater
  92:../libDaisy/src/sys/system.h ****             LAST
  93:../libDaisy/src/sys/system.h ****         } version;
  94:../libDaisy/src/sys/system.h ****     };
  95:../libDaisy/src/sys/system.h **** 
  96:../libDaisy/src/sys/system.h ****     System() {}
  97:../libDaisy/src/sys/system.h ****     ~System() {}
  44              		.loc 3 97 5 is_stmt 1 view .LVU3
  45              		.loc 3 97 5 is_stmt 0 view .LVU4
  46              	.LBE293:
  47              	.LBB294:
  48              	.LBI294:
  49              		.file 4 "../libDaisy/src/hid/usb.h"
   1:../libDaisy/src/hid/usb.h **** #pragma once
   2:../libDaisy/src/hid/usb.h **** #ifndef DSY_HID_USB_H
   3:../libDaisy/src/hid/usb.h **** #define DSY_HID_USB_H
   4:../libDaisy/src/hid/usb.h **** #include <stdint.h>
   5:../libDaisy/src/hid/usb.h **** #include <stdlib.h>
   6:../libDaisy/src/hid/usb.h **** 
   7:../libDaisy/src/hid/usb.h **** namespace daisy
   8:../libDaisy/src/hid/usb.h **** /** @addtogroup human_interface
   9:../libDaisy/src/hid/usb.h ****     @{
  10:../libDaisy/src/hid/usb.h **** */
  11:../libDaisy/src/hid/usb.h **** 
  12:../libDaisy/src/hid/usb.h **** {
  13:../libDaisy/src/hid/usb.h **** /** 
  14:../libDaisy/src/hid/usb.h ****     @brief Interface for initializing and using the USB Peripherals on the daisy
  15:../libDaisy/src/hid/usb.h ****     @author Stephen Hensley
  16:../libDaisy/src/hid/usb.h ****     @date December 2019
  17:../libDaisy/src/hid/usb.h **** */
  18:../libDaisy/src/hid/usb.h **** class UsbHandle
  19:../libDaisy/src/hid/usb.h **** {
  20:../libDaisy/src/hid/usb.h ****   public:
  21:../libDaisy/src/hid/usb.h ****     /** Return values for USBHandle Functions */
  22:../libDaisy/src/hid/usb.h ****     enum class Result
  23:../libDaisy/src/hid/usb.h ****     {
  24:../libDaisy/src/hid/usb.h ****         OK,
  25:../libDaisy/src/hid/usb.h ****         ERR,
  26:../libDaisy/src/hid/usb.h ****     };
  27:../libDaisy/src/hid/usb.h **** 
  28:../libDaisy/src/hid/usb.h ****     /** Specified which of the two USB Peripherals to initialize. */
  29:../libDaisy/src/hid/usb.h ****     enum UsbPeriph
  30:../libDaisy/src/hid/usb.h ****     {
  31:../libDaisy/src/hid/usb.h ****         FS_INTERNAL, /**< Internal pin */
  32:../libDaisy/src/hid/usb.h ****         FS_EXTERNAL, /**< FS External D+ pin is Pin 38 (GPIO32). FS External D- pin is Pin 37 (GPIO
  33:../libDaisy/src/hid/usb.h ****         FS_BOTH,     /**< Both */
  34:../libDaisy/src/hid/usb.h ****     };
  35:../libDaisy/src/hid/usb.h **** 
  36:../libDaisy/src/hid/usb.h **** 
  37:../libDaisy/src/hid/usb.h ****     /** Function called upon reception of a buffer */
  38:../libDaisy/src/hid/usb.h ****     typedef void (*ReceiveCallback)(uint8_t* buff, uint32_t* len);
  39:../libDaisy/src/hid/usb.h **** 
  40:../libDaisy/src/hid/usb.h ****     UsbHandle() {}
ARM GAS  C:\Users\skipi\AppData\Local\Temp\ccS8HZje.s 			page 5


  41:../libDaisy/src/hid/usb.h **** 
  42:../libDaisy/src/hid/usb.h ****     ~UsbHandle() {}
  50              		.loc 4 42 5 is_stmt 1 view .LVU5
  51              		.loc 4 42 5 is_stmt 0 view .LVU6
  52              	.LBE294:
  53              	.LBB295:
  54              	.LBI295:
  55              		.file 5 "../libDaisy/src/per/adc.h"
   1:../libDaisy/src/per/adc.h **** #pragma once
   2:../libDaisy/src/per/adc.h **** #ifndef DSY_ADC_H
   3:../libDaisy/src/per/adc.h **** #define DSY_ADC_H /**< Macro */
   4:../libDaisy/src/per/adc.h **** #include <stdint.h>
   5:../libDaisy/src/per/adc.h **** #include <stdlib.h>
   6:../libDaisy/src/per/adc.h **** #include "daisy_core.h"
   7:../libDaisy/src/per/adc.h **** #include "per/gpio.h"
   8:../libDaisy/src/per/adc.h **** 
   9:../libDaisy/src/per/adc.h **** #define DSY_ADC_MAX_CHANNELS 16 /**< Maximum number of ADC channels */
  10:../libDaisy/src/per/adc.h **** 
  11:../libDaisy/src/per/adc.h **** namespace daisy
  12:../libDaisy/src/per/adc.h **** {
  13:../libDaisy/src/per/adc.h **** /** @addtogroup per_analog
  14:../libDaisy/src/per/adc.h ****     @{
  15:../libDaisy/src/per/adc.h **** */
  16:../libDaisy/src/per/adc.h **** 
  17:../libDaisy/src/per/adc.h **** /* While there may not be many configuration options here,
  18:../libDaisy/src/per/adc.h **** using a struct like this allows us to add more configuration
  19:../libDaisy/src/per/adc.h **** later without breaking existing functionality.
  20:../libDaisy/src/per/adc.h **** */
  21:../libDaisy/src/per/adc.h **** 
  22:../libDaisy/src/per/adc.h **** /** @brief   Configuration Structure for an ADC Channel 
  23:../libDaisy/src/per/adc.h ****  *  @details This can be used to configure a a single input, 
  24:../libDaisy/src/per/adc.h ****  *           or a multiplexed input, allowing up to 8 inputs on 
  25:../libDaisy/src/per/adc.h ****  *           one channel.
  26:../libDaisy/src/per/adc.h ****  *  @note    Sharing data lines to multiple muxes _is_ possible, but
  27:../libDaisy/src/per/adc.h ****  *           each channel sharing data lines must be set to the maximum
  28:../libDaisy/src/per/adc.h ****  *           number of channels, even if some multiplexers have fewer
  29:../libDaisy/src/per/adc.h ****  *           inputs connected.
  30:../libDaisy/src/per/adc.h **** */
  31:../libDaisy/src/per/adc.h **** struct AdcChannelConfig
  32:../libDaisy/src/per/adc.h **** {
  33:../libDaisy/src/per/adc.h ****     /** Which pin to use for multiplexing */
  34:../libDaisy/src/per/adc.h ****     enum MuxPin
  35:../libDaisy/src/per/adc.h ****     {
  36:../libDaisy/src/per/adc.h ****         MUX_SEL_0,    /**< & */
  37:../libDaisy/src/per/adc.h ****         MUX_SEL_1,    /**< & */
  38:../libDaisy/src/per/adc.h ****         MUX_SEL_2,    /**< & */
  39:../libDaisy/src/per/adc.h ****         MUX_SEL_LAST, /**< & */
  40:../libDaisy/src/per/adc.h ****     };
  41:../libDaisy/src/per/adc.h **** 
  42:../libDaisy/src/per/adc.h ****     /** \brief per channel conversion speed added to fixed time based on bitdepth, etc. */
  43:../libDaisy/src/per/adc.h ****     enum ConversionSpeed
  44:../libDaisy/src/per/adc.h ****     {
  45:../libDaisy/src/per/adc.h ****         SPEED_1CYCLES_5,
  46:../libDaisy/src/per/adc.h ****         SPEED_2CYCLES_5,
  47:../libDaisy/src/per/adc.h ****         SPEED_8CYCLES_5,
  48:../libDaisy/src/per/adc.h ****         SPEED_16CYCLES_5,
  49:../libDaisy/src/per/adc.h ****         SPEED_32CYCLES_5,
ARM GAS  C:\Users\skipi\AppData\Local\Temp\ccS8HZje.s 			page 6


  50:../libDaisy/src/per/adc.h ****         SPEED_64CYCLES_5,
  51:../libDaisy/src/per/adc.h ****         SPEED_387CYCLES_5,
  52:../libDaisy/src/per/adc.h ****         SPEED_810CYCLES_5,
  53:../libDaisy/src/per/adc.h ****     };
  54:../libDaisy/src/per/adc.h **** 
  55:../libDaisy/src/per/adc.h ****     /** Initializes a single ADC pin as an ADC. 
  56:../libDaisy/src/per/adc.h ****     \param pin Pin to init.
  57:../libDaisy/src/per/adc.h ****     \param speed conversion speed for this pin defaults to 8.5 cycles
  58:../libDaisy/src/per/adc.h ****      */
  59:../libDaisy/src/per/adc.h ****     void InitSingle(Pin pin, ConversionSpeed speed = SPEED_8CYCLES_5);
  60:../libDaisy/src/per/adc.h **** 
  61:../libDaisy/src/per/adc.h ****     /** 
  62:../libDaisy/src/per/adc.h ****     Initializes a single ADC pin as a Multiplexed ADC.
  63:../libDaisy/src/per/adc.h ****     Requires a CD405X Multiplexer connected to the pin.
  64:../libDaisy/src/per/adc.h ****     You only need to supply the mux pins that are required,
  65:../libDaisy/src/per/adc.h ****     e.g. a 4052 mux would only require mux_0 and mux_1.
  66:../libDaisy/src/per/adc.h ****     Internal Callbacks handle the pin addressing.
  67:../libDaisy/src/per/adc.h ****     \param adc_pin &
  68:../libDaisy/src/per/adc.h ****     \param mux_channels must be 1-8
  69:../libDaisy/src/per/adc.h ****     \param mux_0 First mux pin
  70:../libDaisy/src/per/adc.h ****     \param mux_1 Second mux pin
  71:../libDaisy/src/per/adc.h ****     \param mux_2 Third mux pin
  72:../libDaisy/src/per/adc.h ****     \param speed conversion speed for this pin defaults to 8.5 cycles
  73:../libDaisy/src/per/adc.h ****     */
  74:../libDaisy/src/per/adc.h ****     void InitMux(Pin             adc_pin,
  75:../libDaisy/src/per/adc.h ****                  size_t          mux_channels,
  76:../libDaisy/src/per/adc.h ****                  Pin             mux_0,
  77:../libDaisy/src/per/adc.h ****                  Pin             mux_1 = Pin(PORTX, 0),
  78:../libDaisy/src/per/adc.h ****                  Pin             mux_2 = Pin(PORTX, 0),
  79:../libDaisy/src/per/adc.h ****                  ConversionSpeed speed = SPEED_8CYCLES_5);
  80:../libDaisy/src/per/adc.h **** 
  81:../libDaisy/src/per/adc.h ****     GPIO            pin_;                   /**< & */
  82:../libDaisy/src/per/adc.h ****     GPIO            mux_pin_[MUX_SEL_LAST]; /**< & */
  83:../libDaisy/src/per/adc.h ****     uint8_t         mux_channels_;          /**< & */
  84:../libDaisy/src/per/adc.h ****     ConversionSpeed speed_;
  85:../libDaisy/src/per/adc.h **** };
  86:../libDaisy/src/per/adc.h **** 
  87:../libDaisy/src/per/adc.h **** /**
  88:../libDaisy/src/per/adc.h ****    @brief Handler for analog to digital conversion
  89:../libDaisy/src/per/adc.h **** */
  90:../libDaisy/src/per/adc.h **** class AdcHandle
  91:../libDaisy/src/per/adc.h **** {
  92:../libDaisy/src/per/adc.h ****   public:
  93:../libDaisy/src/per/adc.h ****     /** Supported oversampling amounts */
  94:../libDaisy/src/per/adc.h ****     enum OverSampling
  95:../libDaisy/src/per/adc.h ****     {
  96:../libDaisy/src/per/adc.h ****         OVS_NONE, /**< & */
  97:../libDaisy/src/per/adc.h ****         OVS_4,    /**< & */
  98:../libDaisy/src/per/adc.h ****         OVS_8,    /**< & */
  99:../libDaisy/src/per/adc.h ****         OVS_16,   /**< & */
 100:../libDaisy/src/per/adc.h ****         OVS_32,   /**< & */
 101:../libDaisy/src/per/adc.h ****         OVS_64,   /**< & */
 102:../libDaisy/src/per/adc.h ****         OVS_128,  /**< & */
 103:../libDaisy/src/per/adc.h ****         OVS_256,  /**< & */
 104:../libDaisy/src/per/adc.h ****         OVS_512,  /**< & */
 105:../libDaisy/src/per/adc.h ****         OVS_1024, /**< & */
 106:../libDaisy/src/per/adc.h ****         OVS_LAST, /**< & */
ARM GAS  C:\Users\skipi\AppData\Local\Temp\ccS8HZje.s 			page 7


 107:../libDaisy/src/per/adc.h ****     };
 108:../libDaisy/src/per/adc.h **** 
 109:../libDaisy/src/per/adc.h ****     AdcHandle() {}
 110:../libDaisy/src/per/adc.h ****     ~AdcHandle() {}
  56              		.loc 5 110 5 is_stmt 1 view .LVU7
  57              		.loc 5 110 5 is_stmt 0 view .LVU8
  58              	.LBE295:
  59              	.LBB296:
  60              	.LBI296:
  61              		.file 6 "../libDaisy/src/hid/audio.h"
   1:../libDaisy/src/hid/audio.h **** #ifndef DSY_AUDIO_H
   2:../libDaisy/src/hid/audio.h **** #define DSY_AUDIO_H /**< & */
   3:../libDaisy/src/hid/audio.h **** 
   4:../libDaisy/src/hid/audio.h **** #include "per/sai.h"
   5:../libDaisy/src/hid/audio.h **** 
   6:../libDaisy/src/hid/audio.h **** namespace daisy
   7:../libDaisy/src/hid/audio.h **** {
   8:../libDaisy/src/hid/audio.h **** /** @brief Audio Engine Handle
   9:../libDaisy/src/hid/audio.h ****  *  @ingroup audio 
  10:../libDaisy/src/hid/audio.h ****  *  @details This class allows for higher level access to an audio engine.
  11:../libDaisy/src/hid/audio.h ****  *           If you're using a SOM like the DaisySeed or DaisyPatchSM (or any 
  12:../libDaisy/src/hid/audio.h ****  *            board that includes one of those objects) then the intialization
  13:../libDaisy/src/hid/audio.h ****  *            is already taken  care of.
  14:../libDaisy/src/hid/audio.h ****  *           If you're setting up your own custom hardware, or need to make changes
  15:../libDaisy/src/hid/audio.h ****  *           you will have to take the following steps:
  16:../libDaisy/src/hid/audio.h ****  *             1. Create and Initialize an SaiHandle or two depending on your requirements
  17:../libDaisy/src/hid/audio.h ****  *             2. Initialize the Audio Handle with the desired settings and the Initialized SaiHand
  18:../libDaisy/src/hid/audio.h ****  *             3. If the connected codec requires special configuration or initialization, do so
  19:../libDaisy/src/hid/audio.h ****  *             4. Write a callback method using either the AudioCallback or the InterleavingAudioCa
  20:../libDaisy/src/hid/audio.h ****  *             5. Start the Audio using one of the StartAudio function
  21:../libDaisy/src/hid/audio.h ****  */
  22:../libDaisy/src/hid/audio.h **** class AudioHandle
  23:../libDaisy/src/hid/audio.h **** {
  24:../libDaisy/src/hid/audio.h ****   public:
  25:../libDaisy/src/hid/audio.h ****     /** Manually configurable details about the Audio Engine */
  26:../libDaisy/src/hid/audio.h ****     /** TODO: Figure out how to get samplerate in here. */
  27:../libDaisy/src/hid/audio.h ****     struct Config
  28:../libDaisy/src/hid/audio.h ****     {
  29:../libDaisy/src/hid/audio.h ****         /** number of samples to process per callback */
  30:../libDaisy/src/hid/audio.h ****         size_t blocksize = 48;
  31:../libDaisy/src/hid/audio.h **** 
  32:../libDaisy/src/hid/audio.h ****         /**< Sample rate of audio */
  33:../libDaisy/src/hid/audio.h ****         SaiHandle::Config::SampleRate samplerate
  34:../libDaisy/src/hid/audio.h ****             = SaiHandle::Config::SampleRate::SAI_48KHZ;
  35:../libDaisy/src/hid/audio.h **** 
  36:../libDaisy/src/hid/audio.h ****         /** factor for adjustment before and after callback for hardware that may have extra headro
  37:../libDaisy/src/hid/audio.h ****         float postgain = 1.f;
  38:../libDaisy/src/hid/audio.h **** 
  39:../libDaisy/src/hid/audio.h ****         /** factor for additional one-sided compensation to audio path for hardware that may
  40:../libDaisy/src/hid/audio.h ****          *  have unequal input/output ranges
  41:../libDaisy/src/hid/audio.h ****          */
  42:../libDaisy/src/hid/audio.h ****         float output_compensation = 1.f;
  43:../libDaisy/src/hid/audio.h ****     };
  44:../libDaisy/src/hid/audio.h **** 
  45:../libDaisy/src/hid/audio.h ****     enum class Result
  46:../libDaisy/src/hid/audio.h ****     {
  47:../libDaisy/src/hid/audio.h ****         OK,
ARM GAS  C:\Users\skipi\AppData\Local\Temp\ccS8HZje.s 			page 8


  48:../libDaisy/src/hid/audio.h ****         ERR,
  49:../libDaisy/src/hid/audio.h ****     };
  50:../libDaisy/src/hid/audio.h **** 
  51:../libDaisy/src/hid/audio.h ****     /** Non-Interleaving input buffer
  52:../libDaisy/src/hid/audio.h ****      * Buffer arranged by float[chn][sample] 
  53:../libDaisy/src/hid/audio.h ****      * const so that the user can't modify the input
  54:../libDaisy/src/hid/audio.h ****      */
  55:../libDaisy/src/hid/audio.h ****     typedef const float* const* InputBuffer;
  56:../libDaisy/src/hid/audio.h **** 
  57:../libDaisy/src/hid/audio.h ****     /** Non-Interleaving output buffer
  58:../libDaisy/src/hid/audio.h ****      * Arranged by float[chn][sample] 
  59:../libDaisy/src/hid/audio.h ****      */
  60:../libDaisy/src/hid/audio.h ****     typedef float** OutputBuffer;
  61:../libDaisy/src/hid/audio.h **** 
  62:../libDaisy/src/hid/audio.h ****     /** Type for a Non-Interleaving audio callback 
  63:../libDaisy/src/hid/audio.h ****      * Non-Interleaving audio callbacks in daisy will be of this type
  64:../libDaisy/src/hid/audio.h ****      */
  65:../libDaisy/src/hid/audio.h ****     typedef void (*AudioCallback)(InputBuffer  in,
  66:../libDaisy/src/hid/audio.h ****                                   OutputBuffer out,
  67:../libDaisy/src/hid/audio.h ****                                   size_t       size);
  68:../libDaisy/src/hid/audio.h **** 
  69:../libDaisy/src/hid/audio.h ****     /** Interleaving Input buffer
  70:../libDaisy/src/hid/audio.h ****      ** audio is prepared as { L0, R0, L1, R1, . . . LN, RN }]
  71:../libDaisy/src/hid/audio.h ****      ** this is const, as the user shouldn't modify it
  72:../libDaisy/src/hid/audio.h ****     */
  73:../libDaisy/src/hid/audio.h ****     typedef const float* InterleavingInputBuffer;
  74:../libDaisy/src/hid/audio.h **** 
  75:../libDaisy/src/hid/audio.h ****     /** Interleaving Output buffer 
  76:../libDaisy/src/hid/audio.h ****      ** audio is prepared as { L0, R0, L1, R1, . . . LN, RN }
  77:../libDaisy/src/hid/audio.h ****     */
  78:../libDaisy/src/hid/audio.h ****     typedef float* InterleavingOutputBuffer;
  79:../libDaisy/src/hid/audio.h **** 
  80:../libDaisy/src/hid/audio.h ****     /** Interleaving Audio Callback 
  81:../libDaisy/src/hid/audio.h ****      * Interleaving audio callbacks in daisy must be of this type
  82:../libDaisy/src/hid/audio.h ****      */
  83:../libDaisy/src/hid/audio.h ****     typedef void (*InterleavingAudioCallback)(InterleavingInputBuffer  in,
  84:../libDaisy/src/hid/audio.h ****                                               InterleavingOutputBuffer out,
  85:../libDaisy/src/hid/audio.h ****                                               size_t                   size);
  86:../libDaisy/src/hid/audio.h **** 
  87:../libDaisy/src/hid/audio.h ****     AudioHandle() : pimpl_(nullptr) {}
  88:../libDaisy/src/hid/audio.h ****     ~AudioHandle() {}
  62              		.loc 6 88 5 is_stmt 1 view .LVU9
  63              		.loc 6 88 5 is_stmt 0 view .LVU10
  64              	.LBE296:
  65              		.loc 1 22 19 view .LVU11
  66 0000 7047     		bx	lr
  67              		.cfi_endproc
  68              	.LFE2731:
  70              		.weak	_ZN5daisy9DaisySeedD1Ev
  71              		.thumb_set _ZN5daisy9DaisySeedD1Ev,_ZN5daisy9DaisySeedD2Ev
  72 0002 00BF     		.section	.text._ZN5daisy11MidiHandlerINS_16MidiUsbTransportEED2Ev,"axG",%progbits,_ZN5daisy11MidiH
  73              		.align	1
  74              		.p2align 2,,3
  75              		.weak	_ZN5daisy11MidiHandlerINS_16MidiUsbTransportEED2Ev
  76              		.syntax unified
  77              		.thumb
  78              		.thumb_func
ARM GAS  C:\Users\skipi\AppData\Local\Temp\ccS8HZje.s 			page 9


  79              		.fpu fpv5-d16
  81              	_ZN5daisy11MidiHandlerINS_16MidiUsbTransportEED2Ev:
  82              	.LVL1:
  83              	.LFB5497:
  84              		.file 7 "../libDaisy/src/hid/midi.h"
   1:../libDaisy/src/hid/midi.h **** #pragma once
   2:../libDaisy/src/hid/midi.h **** #ifndef DSY_MIDI_H
   3:../libDaisy/src/hid/midi.h **** #define DSY_MIDI_H
   4:../libDaisy/src/hid/midi.h **** 
   5:../libDaisy/src/hid/midi.h **** #include <stdint.h>
   6:../libDaisy/src/hid/midi.h **** #include <stdlib.h>
   7:../libDaisy/src/hid/midi.h **** #include <algorithm>
   8:../libDaisy/src/hid/midi.h **** #include "per/uart.h"
   9:../libDaisy/src/hid/midi.h **** #include "util/ringbuffer.h"
  10:../libDaisy/src/hid/midi.h **** #include "util/FIFO.h"
  11:../libDaisy/src/hid/midi.h **** #include "hid/midi_parser.h"
  12:../libDaisy/src/hid/midi.h **** #include "hid/usb_midi.h"
  13:../libDaisy/src/hid/midi.h **** #include "sys/dma.h"
  14:../libDaisy/src/hid/midi.h **** #include "sys/system.h"
  15:../libDaisy/src/hid/midi.h **** 
  16:../libDaisy/src/hid/midi.h **** namespace daisy
  17:../libDaisy/src/hid/midi.h **** {
  18:../libDaisy/src/hid/midi.h **** /** @brief   Transport layer for sending and receiving MIDI data over UART
  19:../libDaisy/src/hid/midi.h ****  *  @details This is the mode of communication used for TRS and DIN MIDI
  20:../libDaisy/src/hid/midi.h ****  *           There is an additional 2kB of RAM data used within this class
  21:../libDaisy/src/hid/midi.h ****  *           for processing bulk data from the UART peripheral
  22:../libDaisy/src/hid/midi.h ****  *  @ingroup midi
  23:../libDaisy/src/hid/midi.h **** */
  24:../libDaisy/src/hid/midi.h **** class MidiUartTransport
  25:../libDaisy/src/hid/midi.h **** {
  26:../libDaisy/src/hid/midi.h ****   public:
  27:../libDaisy/src/hid/midi.h ****     typedef void (*MidiRxParseCallback)(uint8_t* data,
  28:../libDaisy/src/hid/midi.h ****                                         size_t   size,
  29:../libDaisy/src/hid/midi.h ****                                         void*    context);
  30:../libDaisy/src/hid/midi.h **** 
  31:../libDaisy/src/hid/midi.h ****     MidiUartTransport() {}
  32:../libDaisy/src/hid/midi.h ****     ~MidiUartTransport() {}
  33:../libDaisy/src/hid/midi.h **** 
  34:../libDaisy/src/hid/midi.h ****     /** @brief Configuration structure for UART MIDI */
  35:../libDaisy/src/hid/midi.h ****     struct Config
  36:../libDaisy/src/hid/midi.h ****     {
  37:../libDaisy/src/hid/midi.h ****         UartHandler::Config::Peripheral periph;
  38:../libDaisy/src/hid/midi.h ****         Pin                             rx;
  39:../libDaisy/src/hid/midi.h ****         Pin                             tx;
  40:../libDaisy/src/hid/midi.h **** 
  41:../libDaisy/src/hid/midi.h ****         /** Pointer to buffer for DMA UART rx byte transfer in background.
  42:../libDaisy/src/hid/midi.h ****          *
  43:../libDaisy/src/hid/midi.h ****          *  @details By default this uses a shared buffer in DMA_BUFFER_MEM_SECTION,
  44:../libDaisy/src/hid/midi.h ****          *           which can only be utilized for a single UART peripheral. To
  45:../libDaisy/src/hid/midi.h ****          *           use MIDI with multiple UART peripherals, you must provide your own
  46:../libDaisy/src/hid/midi.h ****          *           buffer, allocated to a DMA-capable memory section.
  47:../libDaisy/src/hid/midi.h ****          */
  48:../libDaisy/src/hid/midi.h ****         uint8_t* rx_buffer;
  49:../libDaisy/src/hid/midi.h **** 
  50:../libDaisy/src/hid/midi.h ****         /** Size in bytes of rx_buffer.
  51:../libDaisy/src/hid/midi.h ****          *
  52:../libDaisy/src/hid/midi.h ****          *  @details This size determines the maximum Rx bytes readable by the UART in the backgrou
ARM GAS  C:\Users\skipi\AppData\Local\Temp\ccS8HZje.s 			page 10


  53:../libDaisy/src/hid/midi.h ****          *           By default it's set to the size of the default shared rx_buffer (256 bytes).
  54:../libDaisy/src/hid/midi.h ****          *           While much smaller sizes can be used, data can get missed if the buffer is too
  55:../libDaisy/src/hid/midi.h ****          */
  56:../libDaisy/src/hid/midi.h ****         size_t rx_buffer_size;
  57:../libDaisy/src/hid/midi.h **** 
  58:../libDaisy/src/hid/midi.h ****         Config();
  59:../libDaisy/src/hid/midi.h ****     };
  60:../libDaisy/src/hid/midi.h **** 
  61:../libDaisy/src/hid/midi.h ****     /** @brief Initialization of UART using config struct */
  62:../libDaisy/src/hid/midi.h ****     inline void Init(Config config)
  63:../libDaisy/src/hid/midi.h ****     {
  64:../libDaisy/src/hid/midi.h ****         UartHandler::Config uart_config;
  65:../libDaisy/src/hid/midi.h **** 
  66:../libDaisy/src/hid/midi.h ****         //defaults
  67:../libDaisy/src/hid/midi.h ****         uart_config.baudrate   = 31250;
  68:../libDaisy/src/hid/midi.h ****         uart_config.stopbits   = UartHandler::Config::StopBits::BITS_1;
  69:../libDaisy/src/hid/midi.h ****         uart_config.parity     = UartHandler::Config::Parity::NONE;
  70:../libDaisy/src/hid/midi.h ****         uart_config.mode       = UartHandler::Config::Mode::TX_RX;
  71:../libDaisy/src/hid/midi.h ****         uart_config.wordlength = UartHandler::Config::WordLength::BITS_8;
  72:../libDaisy/src/hid/midi.h **** 
  73:../libDaisy/src/hid/midi.h ****         //user settings
  74:../libDaisy/src/hid/midi.h ****         uart_config.periph        = config.periph;
  75:../libDaisy/src/hid/midi.h ****         uart_config.pin_config.rx = config.rx;
  76:../libDaisy/src/hid/midi.h ****         uart_config.pin_config.tx = config.tx;
  77:../libDaisy/src/hid/midi.h **** 
  78:../libDaisy/src/hid/midi.h ****         rx_buffer      = config.rx_buffer;
  79:../libDaisy/src/hid/midi.h ****         rx_buffer_size = config.rx_buffer_size;
  80:../libDaisy/src/hid/midi.h **** 
  81:../libDaisy/src/hid/midi.h ****         /** zero the buffer to ensure emptiness regardless of source memory */
  82:../libDaisy/src/hid/midi.h ****         std::fill(rx_buffer, rx_buffer + rx_buffer_size, 0);
  83:../libDaisy/src/hid/midi.h **** 
  84:../libDaisy/src/hid/midi.h ****         uart_.Init(uart_config);
  85:../libDaisy/src/hid/midi.h ****     }
  86:../libDaisy/src/hid/midi.h **** 
  87:../libDaisy/src/hid/midi.h ****     /** @brief Start the UART peripheral in listening mode.
  88:../libDaisy/src/hid/midi.h ****      *  This will fill an internal data structure in the background */
  89:../libDaisy/src/hid/midi.h ****     inline void StartRx(MidiRxParseCallback parse_callback, void* context)
  90:../libDaisy/src/hid/midi.h ****     {
  91:../libDaisy/src/hid/midi.h ****         parse_context_  = context;
  92:../libDaisy/src/hid/midi.h ****         parse_callback_ = parse_callback;
  93:../libDaisy/src/hid/midi.h ****         dsy_dma_clear_cache_for_buffer((uint8_t*)this,
  94:../libDaisy/src/hid/midi.h ****                                        sizeof(MidiUartTransport));
  95:../libDaisy/src/hid/midi.h ****         uart_.DmaListenStart(
  96:../libDaisy/src/hid/midi.h ****             rx_buffer, rx_buffer_size, MidiUartTransport::rxCallback, this);
  97:../libDaisy/src/hid/midi.h ****     }
  98:../libDaisy/src/hid/midi.h **** 
  99:../libDaisy/src/hid/midi.h ****     /** @brief returns whether the UART peripheral is actively listening in the background or not *
 100:../libDaisy/src/hid/midi.h ****     inline bool RxActive() { return uart_.IsListening(); }
 101:../libDaisy/src/hid/midi.h **** 
 102:../libDaisy/src/hid/midi.h ****     /** @brief This is a no-op for UART transport - Rx is via DMA callback with circular buffer */
 103:../libDaisy/src/hid/midi.h ****     inline void FlushRx() {}
 104:../libDaisy/src/hid/midi.h **** 
 105:../libDaisy/src/hid/midi.h ****     /** @brief sends the buffer of bytes out of the UART peripheral */
 106:../libDaisy/src/hid/midi.h ****     inline void Tx(uint8_t* buff, size_t size) { uart_.PollTx(buff, size); }
 107:../libDaisy/src/hid/midi.h **** 
 108:../libDaisy/src/hid/midi.h ****   private:
 109:../libDaisy/src/hid/midi.h ****     UartHandler         uart_;
ARM GAS  C:\Users\skipi\AppData\Local\Temp\ccS8HZje.s 			page 11


 110:../libDaisy/src/hid/midi.h ****     uint8_t*            rx_buffer;
 111:../libDaisy/src/hid/midi.h ****     size_t              rx_buffer_size;
 112:../libDaisy/src/hid/midi.h ****     void*               parse_context_;
 113:../libDaisy/src/hid/midi.h ****     MidiRxParseCallback parse_callback_;
 114:../libDaisy/src/hid/midi.h **** 
 115:../libDaisy/src/hid/midi.h ****     /** Static callback for Uart MIDI that occurs when
 116:../libDaisy/src/hid/midi.h ****          *  new data is available from the peripheral.
 117:../libDaisy/src/hid/midi.h ****          *  The new data is transferred from the peripheral to the
 118:../libDaisy/src/hid/midi.h ****          *  MIDI instance's byte FIFO that feeds the MIDI parser.
 119:../libDaisy/src/hid/midi.h ****          *
 120:../libDaisy/src/hid/midi.h ****          *  TODO: Handle UartHandler errors better/at all.
 121:../libDaisy/src/hid/midi.h ****          *  (If there is a UART error, there's not really any recovery
 122:../libDaisy/src/hid/midi.h ****          *  option at the moment)
 123:../libDaisy/src/hid/midi.h ****          */
 124:../libDaisy/src/hid/midi.h ****     static void rxCallback(uint8_t*            data,
 125:../libDaisy/src/hid/midi.h ****                            size_t              size,
 126:../libDaisy/src/hid/midi.h ****                            void*               context,
 127:../libDaisy/src/hid/midi.h ****                            UartHandler::Result res)
 128:../libDaisy/src/hid/midi.h ****     {
 129:../libDaisy/src/hid/midi.h ****         /** Read context as transport type */
 130:../libDaisy/src/hid/midi.h ****         MidiUartTransport* transport
 131:../libDaisy/src/hid/midi.h ****             = reinterpret_cast<MidiUartTransport*>(context);
 132:../libDaisy/src/hid/midi.h ****         if(res == UartHandler::Result::OK)
 133:../libDaisy/src/hid/midi.h ****         {
 134:../libDaisy/src/hid/midi.h ****             if(transport->parse_callback_)
 135:../libDaisy/src/hid/midi.h ****             {
 136:../libDaisy/src/hid/midi.h ****                 transport->parse_callback_(
 137:../libDaisy/src/hid/midi.h ****                     data, size, transport->parse_context_);
 138:../libDaisy/src/hid/midi.h ****             }
 139:../libDaisy/src/hid/midi.h ****         }
 140:../libDaisy/src/hid/midi.h ****     }
 141:../libDaisy/src/hid/midi.h **** };
 142:../libDaisy/src/hid/midi.h **** 
 143:../libDaisy/src/hid/midi.h **** /**
 144:../libDaisy/src/hid/midi.h ****     @brief Simple MIDI Handler \n
 145:../libDaisy/src/hid/midi.h ****     Parses bytes from an input into valid MidiEvents. \n
 146:../libDaisy/src/hid/midi.h ****     The MidiEvents fill a FIFO queue that the user can pop messages from.
 147:../libDaisy/src/hid/midi.h ****     @author shensley
 148:../libDaisy/src/hid/midi.h ****     @date March 2020
 149:../libDaisy/src/hid/midi.h ****     @ingroup midi
 150:../libDaisy/src/hid/midi.h **** */
 151:../libDaisy/src/hid/midi.h **** template <typename Transport>
 152:../libDaisy/src/hid/midi.h **** class MidiHandler
 153:../libDaisy/src/hid/midi.h **** {
 154:../libDaisy/src/hid/midi.h ****   public:
 155:../libDaisy/src/hid/midi.h ****     MidiHandler() {}
 156:../libDaisy/src/hid/midi.h ****     ~MidiHandler() {}
  85              		.loc 7 156 5 is_stmt 1 view -0
  86              		.cfi_startproc
  87              		@ args = 0, pretend = 0, frame = 0
  88              		@ frame_needed = 0, uses_anonymous_args = 0
  89              		@ link register save eliminated.
  90              	.LBB297:
  91              	.LBI297:
  92              		.file 8 "../libDaisy/src/util/FIFO.h"
   1:../libDaisy/src/util/FIFO.h **** #pragma once
   2:../libDaisy/src/util/FIFO.h **** 
ARM GAS  C:\Users\skipi\AppData\Local\Temp\ccS8HZje.s 			page 12


   3:../libDaisy/src/util/FIFO.h **** #include <stdint.h>
   4:../libDaisy/src/util/FIFO.h **** #include <stddef.h>
   5:../libDaisy/src/util/FIFO.h **** #include <initializer_list>
   6:../libDaisy/src/util/FIFO.h **** 
   7:../libDaisy/src/util/FIFO.h **** namespace daisy
   8:../libDaisy/src/util/FIFO.h **** {
   9:../libDaisy/src/util/FIFO.h **** /** Capacity-independent base class for FIFO. Use FIFO instead. */
  10:../libDaisy/src/util/FIFO.h **** template <typename T>
  11:../libDaisy/src/util/FIFO.h **** class FIFOBase
  12:../libDaisy/src/util/FIFO.h **** {
  13:../libDaisy/src/util/FIFO.h ****   protected:
  14:../libDaisy/src/util/FIFO.h ****     FIFOBase(T* buffer, size_t bufferSize)
  15:../libDaisy/src/util/FIFO.h ****     : buffer_(buffer), bufferSize_(bufferSize), bufferIn_(0), bufferOut_(0)
  16:../libDaisy/src/util/FIFO.h ****     {
  17:../libDaisy/src/util/FIFO.h ****     }
  18:../libDaisy/src/util/FIFO.h **** 
  19:../libDaisy/src/util/FIFO.h ****     FIFOBase(T* buffer, size_t bufferSize, std::initializer_list<T> valuesToAdd)
  20:../libDaisy/src/util/FIFO.h ****     : buffer_(buffer), bufferSize_(bufferSize), bufferIn_(0), bufferOut_(0)
  21:../libDaisy/src/util/FIFO.h ****     {
  22:../libDaisy/src/util/FIFO.h ****         PushBack(valuesToAdd);
  23:../libDaisy/src/util/FIFO.h ****     }
  24:../libDaisy/src/util/FIFO.h **** 
  25:../libDaisy/src/util/FIFO.h ****   public:
  26:../libDaisy/src/util/FIFO.h ****     /** Copies all elements from another FIFO */
  27:../libDaisy/src/util/FIFO.h ****     FIFOBase<T>& operator=(const FIFOBase<T>& other)
  28:../libDaisy/src/util/FIFO.h ****     {
  29:../libDaisy/src/util/FIFO.h ****         bufferIn_ = bufferOut_ = 0;
  30:../libDaisy/src/util/FIFO.h ****         if(!other.IsEmpty())
  31:../libDaisy/src/util/FIFO.h ****         {
  32:../libDaisy/src/util/FIFO.h ****             int readPtr = other.bufferOut_;
  33:../libDaisy/src/util/FIFO.h ****             while((readPtr != other.bufferIn_) && (bufferIn_ < bufferSize_))
  34:../libDaisy/src/util/FIFO.h ****             {
  35:../libDaisy/src/util/FIFO.h ****                 buffer_[bufferIn_++] = other.buffer_[readPtr++];
  36:../libDaisy/src/util/FIFO.h ****                 if(readPtr >= other.bufferSize_)
  37:../libDaisy/src/util/FIFO.h ****                     readPtr -= other.bufferSize_;
  38:../libDaisy/src/util/FIFO.h ****             }
  39:../libDaisy/src/util/FIFO.h ****         }
  40:../libDaisy/src/util/FIFO.h ****         return *this;
  41:../libDaisy/src/util/FIFO.h ****     }
  42:../libDaisy/src/util/FIFO.h ****     ~FIFOBase() {}
  43:../libDaisy/src/util/FIFO.h **** 
  44:../libDaisy/src/util/FIFO.h ****     /** Removes all elements from the FIFO */
  45:../libDaisy/src/util/FIFO.h ****     void Clear() { bufferIn_ = bufferOut_ = 0; }
  46:../libDaisy/src/util/FIFO.h **** 
  47:../libDaisy/src/util/FIFO.h ****     /** Adds an element to the back of the buffer, returning true on
  48:../libDaisy/src/util/FIFO.h ****         success */
  49:../libDaisy/src/util/FIFO.h ****     bool PushBack(const T& elementToAdd)
  50:../libDaisy/src/util/FIFO.h ****     {
  51:../libDaisy/src/util/FIFO.h ****         if(!IsFull())
  52:../libDaisy/src/util/FIFO.h ****         {
  53:../libDaisy/src/util/FIFO.h ****             buffer_[bufferIn_++] = elementToAdd;
  54:../libDaisy/src/util/FIFO.h ****             if(bufferIn_ >= bufferSize_)
  55:../libDaisy/src/util/FIFO.h ****                 bufferIn_ -= bufferSize_;
  56:../libDaisy/src/util/FIFO.h ****             return true;
  57:../libDaisy/src/util/FIFO.h ****         }
  58:../libDaisy/src/util/FIFO.h ****         return false;
  59:../libDaisy/src/util/FIFO.h ****     }
ARM GAS  C:\Users\skipi\AppData\Local\Temp\ccS8HZje.s 			page 13


  60:../libDaisy/src/util/FIFO.h **** 
  61:../libDaisy/src/util/FIFO.h ****     /** Adds multiple elements and returns the number of elements that were added */
  62:../libDaisy/src/util/FIFO.h ****     int PushBack(std::initializer_list<T> valuesToAdd)
  63:../libDaisy/src/util/FIFO.h ****     {
  64:../libDaisy/src/util/FIFO.h ****         int numAdded = 0;
  65:../libDaisy/src/util/FIFO.h ****         for(const auto& v : valuesToAdd)
  66:../libDaisy/src/util/FIFO.h ****         {
  67:../libDaisy/src/util/FIFO.h ****             if(IsFull())
  68:../libDaisy/src/util/FIFO.h ****                 return numAdded;
  69:../libDaisy/src/util/FIFO.h **** 
  70:../libDaisy/src/util/FIFO.h ****             PushBack(v);
  71:../libDaisy/src/util/FIFO.h ****             numAdded++;
  72:../libDaisy/src/util/FIFO.h ****         }
  73:../libDaisy/src/util/FIFO.h ****         return numAdded;
  74:../libDaisy/src/util/FIFO.h ****     }
  75:../libDaisy/src/util/FIFO.h **** 
  76:../libDaisy/src/util/FIFO.h ****     /** returns a reference to the last element */
  77:../libDaisy/src/util/FIFO.h ****     T& Back()
  78:../libDaisy/src/util/FIFO.h ****     {
  79:../libDaisy/src/util/FIFO.h ****         if(IsEmpty())
  80:../libDaisy/src/util/FIFO.h ****             // invalid, but better not pass a temporary T() object as a reference...
  81:../libDaisy/src/util/FIFO.h ****             return buffer_[0];
  82:../libDaisy/src/util/FIFO.h ****         int idx = bufferIn_ - 1;
  83:../libDaisy/src/util/FIFO.h ****         if(idx < 0)
  84:../libDaisy/src/util/FIFO.h ****             idx += bufferSize_;
  85:../libDaisy/src/util/FIFO.h ****         return buffer_[idx];
  86:../libDaisy/src/util/FIFO.h ****     }
  87:../libDaisy/src/util/FIFO.h **** 
  88:../libDaisy/src/util/FIFO.h ****     /** returns a reference to the last element */
  89:../libDaisy/src/util/FIFO.h ****     const T& Back() const
  90:../libDaisy/src/util/FIFO.h ****     {
  91:../libDaisy/src/util/FIFO.h ****         if(IsEmpty())
  92:../libDaisy/src/util/FIFO.h ****             // invalid, but better not pass a temporary T() object as a reference...
  93:../libDaisy/src/util/FIFO.h ****             return buffer_[0];
  94:../libDaisy/src/util/FIFO.h ****         int idx = bufferIn_ - 1;
  95:../libDaisy/src/util/FIFO.h ****         if(idx < 0)
  96:../libDaisy/src/util/FIFO.h ****             idx += bufferSize_;
  97:../libDaisy/src/util/FIFO.h ****         return buffer_[idx];
  98:../libDaisy/src/util/FIFO.h ****     }
  99:../libDaisy/src/util/FIFO.h **** 
 100:../libDaisy/src/util/FIFO.h ****     /** removes and returns an element from the front of the buffer */
 101:../libDaisy/src/util/FIFO.h ****     T PopFront()
 102:../libDaisy/src/util/FIFO.h ****     {
 103:../libDaisy/src/util/FIFO.h ****         if(IsEmpty())
 104:../libDaisy/src/util/FIFO.h ****             return T();
 105:../libDaisy/src/util/FIFO.h ****         else
 106:../libDaisy/src/util/FIFO.h ****         {
 107:../libDaisy/src/util/FIFO.h ****             const auto result = buffer_[bufferOut_];
 108:../libDaisy/src/util/FIFO.h ****             bufferOut_++;
 109:../libDaisy/src/util/FIFO.h ****             if(bufferOut_ >= bufferSize_)
 110:../libDaisy/src/util/FIFO.h ****                 bufferOut_ -= bufferSize_;
 111:../libDaisy/src/util/FIFO.h ****             return result;
 112:../libDaisy/src/util/FIFO.h ****         }
 113:../libDaisy/src/util/FIFO.h ****     }
 114:../libDaisy/src/util/FIFO.h **** 
 115:../libDaisy/src/util/FIFO.h ****     /** returns a copy of the first element */
 116:../libDaisy/src/util/FIFO.h ****     T& Front()
ARM GAS  C:\Users\skipi\AppData\Local\Temp\ccS8HZje.s 			page 14


 117:../libDaisy/src/util/FIFO.h ****     {
 118:../libDaisy/src/util/FIFO.h ****         if(IsEmpty())
 119:../libDaisy/src/util/FIFO.h ****             // invalid, but better not pass a temporary T() object as a reference...
 120:../libDaisy/src/util/FIFO.h ****             return buffer_[0];
 121:../libDaisy/src/util/FIFO.h ****         return buffer_[bufferOut_];
 122:../libDaisy/src/util/FIFO.h ****     }
 123:../libDaisy/src/util/FIFO.h **** 
 124:../libDaisy/src/util/FIFO.h ****     /** returns a reference to the first element */
 125:../libDaisy/src/util/FIFO.h ****     const T& Front() const
 126:../libDaisy/src/util/FIFO.h ****     {
 127:../libDaisy/src/util/FIFO.h ****         if(IsEmpty())
 128:../libDaisy/src/util/FIFO.h ****             // invalid, but better not pass a temporary T() object as a reference...
 129:../libDaisy/src/util/FIFO.h ****             return buffer_[0];
 130:../libDaisy/src/util/FIFO.h ****         return buffer_[bufferOut_];
 131:../libDaisy/src/util/FIFO.h ****     }
 132:../libDaisy/src/util/FIFO.h **** 
 133:../libDaisy/src/util/FIFO.h ****     /** Returns true if the buffer contains an element equal to the provided value */
 134:../libDaisy/src/util/FIFO.h ****     bool Contains(const T& element)
 135:../libDaisy/src/util/FIFO.h ****     {
 136:../libDaisy/src/util/FIFO.h ****         auto idx = bufferOut_;
 137:../libDaisy/src/util/FIFO.h ****         while(idx != bufferIn_)
 138:../libDaisy/src/util/FIFO.h ****         {
 139:../libDaisy/src/util/FIFO.h ****             if(buffer_[idx] == element)
 140:../libDaisy/src/util/FIFO.h ****                 return true;
 141:../libDaisy/src/util/FIFO.h ****             idx++;
 142:../libDaisy/src/util/FIFO.h ****             if(idx >= bufferSize_)
 143:../libDaisy/src/util/FIFO.h ****                 idx -= bufferSize_;
 144:../libDaisy/src/util/FIFO.h ****         }
 145:../libDaisy/src/util/FIFO.h ****         return false;
 146:../libDaisy/src/util/FIFO.h ****     }
 147:../libDaisy/src/util/FIFO.h **** 
 148:../libDaisy/src/util/FIFO.h ****     /** Returns the number of elements in the buffer that are equal to the provided value */
 149:../libDaisy/src/util/FIFO.h ****     size_t CountEqualTo(const T& element)
 150:../libDaisy/src/util/FIFO.h ****     {
 151:../libDaisy/src/util/FIFO.h ****         size_t result = 0;
 152:../libDaisy/src/util/FIFO.h ****         size_t idx    = bufferOut_;
 153:../libDaisy/src/util/FIFO.h ****         while(idx != bufferIn_)
 154:../libDaisy/src/util/FIFO.h ****         {
 155:../libDaisy/src/util/FIFO.h ****             if(buffer_[idx] == element)
 156:../libDaisy/src/util/FIFO.h ****                 result++;
 157:../libDaisy/src/util/FIFO.h ****             idx++;
 158:../libDaisy/src/util/FIFO.h ****             if(idx >= bufferSize_)
 159:../libDaisy/src/util/FIFO.h ****                 idx -= bufferSize_;
 160:../libDaisy/src/util/FIFO.h ****         }
 161:../libDaisy/src/util/FIFO.h ****         return result;
 162:../libDaisy/src/util/FIFO.h ****     }
 163:../libDaisy/src/util/FIFO.h **** 
 164:../libDaisy/src/util/FIFO.h ****     /** returns true, if the buffer is empty */
 165:../libDaisy/src/util/FIFO.h ****     bool IsEmpty() const { return bufferIn_ == bufferOut_; }
 166:../libDaisy/src/util/FIFO.h **** 
 167:../libDaisy/src/util/FIFO.h ****     /** returns true, if the buffer is Full */
 168:../libDaisy/src/util/FIFO.h ****     bool IsFull() const { return GetNumElements() == bufferSize_ - 1; }
 169:../libDaisy/src/util/FIFO.h **** 
 170:../libDaisy/src/util/FIFO.h ****     /** returns the number of elements in the buffer */
 171:../libDaisy/src/util/FIFO.h ****     size_t GetNumElements() const
 172:../libDaisy/src/util/FIFO.h ****     {
 173:../libDaisy/src/util/FIFO.h ****         int32_t numElements = bufferIn_ - bufferOut_;
ARM GAS  C:\Users\skipi\AppData\Local\Temp\ccS8HZje.s 			page 15


 174:../libDaisy/src/util/FIFO.h ****         if(numElements < 0)
 175:../libDaisy/src/util/FIFO.h ****             numElements += bufferSize_;
 176:../libDaisy/src/util/FIFO.h ****         return size_t(numElements);
 177:../libDaisy/src/util/FIFO.h ****     }
 178:../libDaisy/src/util/FIFO.h **** 
 179:../libDaisy/src/util/FIFO.h ****     /** inserts an element "idx" positions behind the first element and returns true if successful 
 180:../libDaisy/src/util/FIFO.h ****     bool Insert(size_t idx, const T& element)
 181:../libDaisy/src/util/FIFO.h ****     {
 182:../libDaisy/src/util/FIFO.h ****         if(idx > GetNumElements())
 183:../libDaisy/src/util/FIFO.h ****             return false;
 184:../libDaisy/src/util/FIFO.h ****         if(IsFull())
 185:../libDaisy/src/util/FIFO.h ****             return false;
 186:../libDaisy/src/util/FIFO.h ****         if(idx == GetNumElements())
 187:../libDaisy/src/util/FIFO.h ****         {
 188:../libDaisy/src/util/FIFO.h ****             PushBack(element);
 189:../libDaisy/src/util/FIFO.h ****             return true;
 190:../libDaisy/src/util/FIFO.h ****         }
 191:../libDaisy/src/util/FIFO.h ****         // copy last element
 192:../libDaisy/src/util/FIFO.h ****         PushBack(Back());
 193:../libDaisy/src/util/FIFO.h ****         // move remaining elements: n => n+1
 194:../libDaisy/src/util/FIFO.h ****         for(int i = GetNumElements() - 2; i > int(idx); i--)
 195:../libDaisy/src/util/FIFO.h ****             (*this)[i] = (*this)[i - 1];
 196:../libDaisy/src/util/FIFO.h ****         // insert element
 197:../libDaisy/src/util/FIFO.h ****         (*this)[idx] = element;
 198:../libDaisy/src/util/FIFO.h ****         return true;
 199:../libDaisy/src/util/FIFO.h ****     }
 200:../libDaisy/src/util/FIFO.h **** 
 201:../libDaisy/src/util/FIFO.h ****     /** removes the element "idx" positions behind the first element
 202:../libDaisy/src/util/FIFO.h ****      *  and returns true if successful */
 203:../libDaisy/src/util/FIFO.h ****     bool Remove(size_t idx)
 204:../libDaisy/src/util/FIFO.h ****     {
 205:../libDaisy/src/util/FIFO.h ****         if(idx >= GetNumElements())
 206:../libDaisy/src/util/FIFO.h ****             return false;
 207:../libDaisy/src/util/FIFO.h **** 
 208:../libDaisy/src/util/FIFO.h ****         size_t index = bufferOut_ + idx;
 209:../libDaisy/src/util/FIFO.h ****         if(index >= bufferSize_)
 210:../libDaisy/src/util/FIFO.h ****             index -= bufferSize_;
 211:../libDaisy/src/util/FIFO.h ****         size_t nextIndex = index + 1;
 212:../libDaisy/src/util/FIFO.h ****         if(nextIndex >= bufferSize_)
 213:../libDaisy/src/util/FIFO.h ****             nextIndex -= bufferSize_;
 214:../libDaisy/src/util/FIFO.h **** 
 215:../libDaisy/src/util/FIFO.h ****         while(nextIndex != bufferIn_)
 216:../libDaisy/src/util/FIFO.h ****         {
 217:../libDaisy/src/util/FIFO.h ****             buffer_[index] = buffer_[nextIndex];
 218:../libDaisy/src/util/FIFO.h ****             index++;
 219:../libDaisy/src/util/FIFO.h ****             nextIndex++;
 220:../libDaisy/src/util/FIFO.h ****             if(index >= bufferSize_)
 221:../libDaisy/src/util/FIFO.h ****                 index -= bufferSize_;
 222:../libDaisy/src/util/FIFO.h ****             if(nextIndex >= bufferSize_)
 223:../libDaisy/src/util/FIFO.h ****                 nextIndex -= bufferSize_;
 224:../libDaisy/src/util/FIFO.h ****         }
 225:../libDaisy/src/util/FIFO.h **** 
 226:../libDaisy/src/util/FIFO.h ****         int32_t nextBufferIn = int32_t(bufferIn_) - 1;
 227:../libDaisy/src/util/FIFO.h ****         if(nextBufferIn < 0)
 228:../libDaisy/src/util/FIFO.h ****             nextBufferIn += bufferSize_;
 229:../libDaisy/src/util/FIFO.h ****         bufferIn_ = size_t(nextBufferIn);
 230:../libDaisy/src/util/FIFO.h **** 
ARM GAS  C:\Users\skipi\AppData\Local\Temp\ccS8HZje.s 			page 16


 231:../libDaisy/src/util/FIFO.h ****         return true;
 232:../libDaisy/src/util/FIFO.h ****     }
 233:../libDaisy/src/util/FIFO.h **** 
 234:../libDaisy/src/util/FIFO.h ****     /** removes all elements from the buffer for which
 235:../libDaisy/src/util/FIFO.h ****         (buffer(index) == element) returns true and returns the number of
 236:../libDaisy/src/util/FIFO.h ****         elements that were removed. */
 237:../libDaisy/src/util/FIFO.h ****     size_t RemoveAllEqualTo(const T& element)
 238:../libDaisy/src/util/FIFO.h ****     {
 239:../libDaisy/src/util/FIFO.h ****         size_t numRemoved = 0;
 240:../libDaisy/src/util/FIFO.h ****         int    idx        = GetNumElements() - 1;
 241:../libDaisy/src/util/FIFO.h ****         while(idx >= 0)
 242:../libDaisy/src/util/FIFO.h ****         {
 243:../libDaisy/src/util/FIFO.h ****             if((*this)[idx] == element)
 244:../libDaisy/src/util/FIFO.h ****             {
 245:../libDaisy/src/util/FIFO.h ****                 numRemoved++;
 246:../libDaisy/src/util/FIFO.h ****                 Remove(idx);
 247:../libDaisy/src/util/FIFO.h ****                 // was that the last element?
 248:../libDaisy/src/util/FIFO.h ****                 if(idx == int(GetNumElements()) - 1)
 249:../libDaisy/src/util/FIFO.h ****                     idx--;
 250:../libDaisy/src/util/FIFO.h ****             }
 251:../libDaisy/src/util/FIFO.h ****             else
 252:../libDaisy/src/util/FIFO.h ****                 idx--;
 253:../libDaisy/src/util/FIFO.h ****         }
 254:../libDaisy/src/util/FIFO.h ****         return numRemoved;
 255:../libDaisy/src/util/FIFO.h ****     }
 256:../libDaisy/src/util/FIFO.h **** 
 257:../libDaisy/src/util/FIFO.h ****     /** returns the element "idx" positions behind the first element */
 258:../libDaisy/src/util/FIFO.h ****     T& operator[](size_t idx)
 259:../libDaisy/src/util/FIFO.h ****     {
 260:../libDaisy/src/util/FIFO.h ****         if(idx >= GetNumElements())
 261:../libDaisy/src/util/FIFO.h ****             // invalid, but better not pass a temporary T() object as a reference...
 262:../libDaisy/src/util/FIFO.h ****             return buffer_[0];
 263:../libDaisy/src/util/FIFO.h **** 
 264:../libDaisy/src/util/FIFO.h ****         size_t index = bufferOut_ + idx;
 265:../libDaisy/src/util/FIFO.h ****         if(index >= bufferSize_)
 266:../libDaisy/src/util/FIFO.h ****             index -= bufferSize_;
 267:../libDaisy/src/util/FIFO.h ****         return buffer_[index];
 268:../libDaisy/src/util/FIFO.h ****     }
 269:../libDaisy/src/util/FIFO.h **** 
 270:../libDaisy/src/util/FIFO.h ****     /** returns the element "idx" positions behind the first element */
 271:../libDaisy/src/util/FIFO.h ****     const T& operator[](size_t idx) const
 272:../libDaisy/src/util/FIFO.h ****     {
 273:../libDaisy/src/util/FIFO.h ****         if(idx >= GetNumElements())
 274:../libDaisy/src/util/FIFO.h ****             // invalid, but better not pass a temporary T() object as a reference...
 275:../libDaisy/src/util/FIFO.h ****             return buffer_[0];
 276:../libDaisy/src/util/FIFO.h **** 
 277:../libDaisy/src/util/FIFO.h ****         size_t index = bufferOut_ + idx;
 278:../libDaisy/src/util/FIFO.h ****         if(index >= bufferSize_)
 279:../libDaisy/src/util/FIFO.h ****             index -= bufferSize_;
 280:../libDaisy/src/util/FIFO.h ****         return buffer_[index];
 281:../libDaisy/src/util/FIFO.h ****     }
 282:../libDaisy/src/util/FIFO.h **** 
 283:../libDaisy/src/util/FIFO.h ****     /** returns the total capacity */
 284:../libDaisy/src/util/FIFO.h ****     size_t GetCapacity() const { return bufferSize_ - 1; }
 285:../libDaisy/src/util/FIFO.h **** 
 286:../libDaisy/src/util/FIFO.h ****   private:
 287:../libDaisy/src/util/FIFO.h ****     FIFOBase(const FIFOBase<T>&) {} // non copyable
ARM GAS  C:\Users\skipi\AppData\Local\Temp\ccS8HZje.s 			page 17


 288:../libDaisy/src/util/FIFO.h **** 
 289:../libDaisy/src/util/FIFO.h ****   private:
 290:../libDaisy/src/util/FIFO.h ****     T*           buffer_;
 291:../libDaisy/src/util/FIFO.h ****     const size_t bufferSize_;
 292:../libDaisy/src/util/FIFO.h ****     size_t       bufferIn_;
 293:../libDaisy/src/util/FIFO.h ****     size_t       bufferOut_;
 294:../libDaisy/src/util/FIFO.h **** };
 295:../libDaisy/src/util/FIFO.h **** 
 296:../libDaisy/src/util/FIFO.h **** /** A simple FIFO ring buffer with a fixed size. */
 297:../libDaisy/src/util/FIFO.h **** template <typename T, size_t capacity>
 298:../libDaisy/src/util/FIFO.h **** class FIFO : public FIFOBase<T>
  93              		.loc 8 298 7 view .LVU13
  94              	.LBB298:
  95              	.LBI298:
  42:../libDaisy/src/util/FIFO.h **** 
  96              		.loc 8 42 5 view .LVU14
  42:../libDaisy/src/util/FIFO.h **** 
  97              		.loc 8 42 5 is_stmt 0 view .LVU15
  98              	.LBE298:
  99              	.LBE297:
 100              	.LBB299:
 101              	.LBI299:
 102              		.file 9 "../libDaisy/src/hid/midi_parser.h"
   1:../libDaisy/src/hid/midi_parser.h **** #pragma once
   2:../libDaisy/src/hid/midi_parser.h **** #ifndef DSY_MIDI_PARSER_H
   3:../libDaisy/src/hid/midi_parser.h **** #define DSY_MIDI_PARSER_H
   4:../libDaisy/src/hid/midi_parser.h **** 
   5:../libDaisy/src/hid/midi_parser.h **** #include <stdint.h>
   6:../libDaisy/src/hid/midi_parser.h **** #include <stdlib.h>
   7:../libDaisy/src/hid/midi_parser.h **** #include "hid/MidiEvent.h"
   8:../libDaisy/src/hid/midi_parser.h **** 
   9:../libDaisy/src/hid/midi_parser.h **** namespace daisy
  10:../libDaisy/src/hid/midi_parser.h **** {
  11:../libDaisy/src/hid/midi_parser.h **** /** @brief   Utility class for parsing raw byte streams into MIDI messages
  12:../libDaisy/src/hid/midi_parser.h ****  *  @details Implemented as a state machine designed to parse one byte at a time
  13:../libDaisy/src/hid/midi_parser.h ****  *  @ingroup midi
  14:../libDaisy/src/hid/midi_parser.h ****  */
  15:../libDaisy/src/hid/midi_parser.h **** class MidiParser
  16:../libDaisy/src/hid/midi_parser.h **** {
  17:../libDaisy/src/hid/midi_parser.h ****   public:
  18:../libDaisy/src/hid/midi_parser.h ****     MidiParser(){};
  19:../libDaisy/src/hid/midi_parser.h ****     ~MidiParser() {}
 103              		.loc 9 19 5 is_stmt 1 view .LVU16
 104              		.loc 9 19 5 is_stmt 0 view .LVU17
 105              	.LBE299:
 106              	.LBB300:
 107              	.LBI300:
 108              		.file 10 "../libDaisy/src/hid/usb_midi.h"
   1:../libDaisy/src/hid/usb_midi.h **** #pragma once
   2:../libDaisy/src/hid/usb_midi.h **** #ifndef __DSY_MIDIUSBTRANSPORT_H__
   3:../libDaisy/src/hid/usb_midi.h **** #define __DSY_MIDIUSBTRANSPORT_H__
   4:../libDaisy/src/hid/usb_midi.h **** 
   5:../libDaisy/src/hid/usb_midi.h **** #include "hid/usb.h"
   6:../libDaisy/src/hid/usb_midi.h **** #include "sys/system.h"
   7:../libDaisy/src/hid/usb_midi.h **** #include "util/ringbuffer.h"
   8:../libDaisy/src/hid/usb_midi.h **** 
   9:../libDaisy/src/hid/usb_midi.h **** namespace daisy
ARM GAS  C:\Users\skipi\AppData\Local\Temp\ccS8HZje.s 			page 18


  10:../libDaisy/src/hid/usb_midi.h **** {
  11:../libDaisy/src/hid/usb_midi.h **** /** @brief USB Transport for MIDI
  12:../libDaisy/src/hid/usb_midi.h ****  *  @ingroup midi
  13:../libDaisy/src/hid/usb_midi.h ****  */
  14:../libDaisy/src/hid/usb_midi.h **** class MidiUsbTransport
  15:../libDaisy/src/hid/usb_midi.h **** {
  16:../libDaisy/src/hid/usb_midi.h ****   public:
  17:../libDaisy/src/hid/usb_midi.h ****     typedef void (*MidiRxParseCallback)(uint8_t* data,
  18:../libDaisy/src/hid/usb_midi.h ****                                         size_t   size,
  19:../libDaisy/src/hid/usb_midi.h ****                                         void*    context);
  20:../libDaisy/src/hid/usb_midi.h **** 
  21:../libDaisy/src/hid/usb_midi.h ****     struct Config
  22:../libDaisy/src/hid/usb_midi.h ****     {
  23:../libDaisy/src/hid/usb_midi.h ****         enum Periph
  24:../libDaisy/src/hid/usb_midi.h ****         {
  25:../libDaisy/src/hid/usb_midi.h ****             INTERNAL = 0,
  26:../libDaisy/src/hid/usb_midi.h ****             EXTERNAL,
  27:../libDaisy/src/hid/usb_midi.h ****             HOST
  28:../libDaisy/src/hid/usb_midi.h ****         };
  29:../libDaisy/src/hid/usb_midi.h **** 
  30:../libDaisy/src/hid/usb_midi.h ****         Periph periph;
  31:../libDaisy/src/hid/usb_midi.h **** 
  32:../libDaisy/src/hid/usb_midi.h ****         /**
  33:../libDaisy/src/hid/usb_midi.h ****          * When sending MIDI messages immediately back-to-back in user code,
  34:../libDaisy/src/hid/usb_midi.h ****          * sometimes the USB CDC driver is still "busy".
  35:../libDaisy/src/hid/usb_midi.h ****          *
  36:../libDaisy/src/hid/usb_midi.h ****          * This option configures the number of times to retry a Tx after
  37:../libDaisy/src/hid/usb_midi.h ****          * delaying for 100 microseconds (default = 3 retries).
  38:../libDaisy/src/hid/usb_midi.h ****          *
  39:../libDaisy/src/hid/usb_midi.h ****          * If you set this to zero, Tx will not retry so the attempt will block
  40:../libDaisy/src/hid/usb_midi.h ****          * for slightly less time, but transmit can fail if the Tx state is busy.
  41:../libDaisy/src/hid/usb_midi.h ****          */
  42:../libDaisy/src/hid/usb_midi.h ****         uint8_t tx_retry_count;
  43:../libDaisy/src/hid/usb_midi.h **** 
  44:../libDaisy/src/hid/usb_midi.h ****         Config() : periph(INTERNAL), tx_retry_count(3) {}
  45:../libDaisy/src/hid/usb_midi.h ****     };
  46:../libDaisy/src/hid/usb_midi.h **** 
  47:../libDaisy/src/hid/usb_midi.h ****     void Init(Config config);
  48:../libDaisy/src/hid/usb_midi.h **** 
  49:../libDaisy/src/hid/usb_midi.h ****     void StartRx(MidiRxParseCallback callback, void* context);
  50:../libDaisy/src/hid/usb_midi.h ****     bool RxActive();
  51:../libDaisy/src/hid/usb_midi.h ****     void FlushRx();
  52:../libDaisy/src/hid/usb_midi.h ****     void Tx(uint8_t* buffer, size_t size);
  53:../libDaisy/src/hid/usb_midi.h **** 
  54:../libDaisy/src/hid/usb_midi.h ****     class Impl;
  55:../libDaisy/src/hid/usb_midi.h **** 
  56:../libDaisy/src/hid/usb_midi.h ****     MidiUsbTransport() : pimpl_(nullptr) {}
  57:../libDaisy/src/hid/usb_midi.h ****     ~MidiUsbTransport() {}
 109              		.loc 10 57 5 is_stmt 1 view .LVU18
 110              		.loc 10 57 5 is_stmt 0 view .LVU19
 111              	.LBE300:
 112              		.loc 7 156 21 view .LVU20
 113 0000 7047     		bx	lr
 114              		.cfi_endproc
 115              	.LFE5497:
 117              		.weak	_ZN5daisy11MidiHandlerINS_16MidiUsbTransportEED1Ev
 118              		.thumb_set _ZN5daisy11MidiHandlerINS_16MidiUsbTransportEED1Ev,_ZN5daisy11MidiHandlerINS_16MidiUsbT
ARM GAS  C:\Users\skipi\AppData\Local\Temp\ccS8HZje.s 			page 19


 119 0002 00BF     		.section	.text._Z8InitGPIOv,"ax",%progbits
 120              		.align	1
 121              		.p2align 2,,3
 122              		.global	_Z8InitGPIOv
 123              		.syntax unified
 124              		.thumb
 125              		.thumb_func
 126              		.fpu fpv5-d16
 128              	_Z8InitGPIOv:
 129              	.LFB4906:
 130              		.file 11 "main.cpp"
   1:main.cpp      **** #include "daisy_seed.h"
   2:main.cpp      **** #include "daisysp.h"
   3:main.cpp      **** 
   4:main.cpp      **** #define LDR_NUM 6 
   5:main.cpp      **** #define ADC_NUM 1 
   6:main.cpp      **** #define V0 60      // Nota MIDI più bassa (C3)
   7:main.cpp      **** 
   8:main.cpp      **** using namespace daisy;
   9:main.cpp      **** using namespace daisysp;
  10:main.cpp      **** 
  11:main.cpp      **** DaisySeed       hw;
  12:main.cpp      **** MidiUsbHandler  midi;
  13:main.cpp      **** AdcChannelConfig adcConfig[ADC_NUM + LDR_NUM]; 
  14:main.cpp      **** 
  15:main.cpp      **** GPIO button;
  16:main.cpp      **** GPIO leds[6]; // Array per gestire i LED in modo ciclico
  17:main.cpp      **** 
  18:main.cpp      **** void InitGPIO() {
 131              		.loc 11 18 17 is_stmt 1 view -0
 132              		.cfi_startproc
 133              		@ args = 0, pretend = 0, frame = 16
 134              		@ frame_needed = 0, uses_anonymous_args = 0
  19:main.cpp      ****     // Inizializzazione ADC per i 6 LDR (Pin 15-20)
  20:main.cpp      ****     for (int i = 0; i < LDR_NUM; i++) {
 135              		.loc 11 20 5 view .LVU22
 136              	.LVL2:
 137              	.LBB301:
 138              		.loc 11 20 23 view .LVU23
 139              	.LBE301:
  18:main.cpp      ****     // Inizializzazione ADC per i 6 LDR (Pin 15-20)
 140              		.loc 11 18 17 is_stmt 0 view .LVU24
 141 0000 70B5     		push	{r4, r5, r6, lr}
 142              		.cfi_def_cfa_offset 16
 143              		.cfi_offset 4, -16
 144              		.cfi_offset 5, -12
 145              		.cfi_offset 6, -8
 146              		.cfi_offset 14, -4
 147 0002 224D     		ldr	r5, .L10
 148 0004 86B0     		sub	sp, sp, #24
 149              		.cfi_def_cfa_offset 40
  18:main.cpp      ****     // Inizializzazione ADC per i 6 LDR (Pin 15-20)
 150              		.loc 11 18 17 view .LVU25
 151 0006 0F24     		movs	r4, #15
 152              	.LVL3:
 153              	.L5:
 154              	.LBB302:
ARM GAS  C:\Users\skipi\AppData\Local\Temp\ccS8HZje.s 			page 20


  21:main.cpp      ****         adcConfig[i].InitSingle(hw.GetPin(15 + i));
 155              		.loc 11 21 9 is_stmt 1 discriminator 2 view .LVU26
 156              		.loc 11 21 32 is_stmt 0 discriminator 2 view .LVU27
 157 0008 2046     		mov	r0, r4
  20:main.cpp      ****         adcConfig[i].InitSingle(hw.GetPin(15 + i));
 158              		.loc 11 20 23 discriminator 2 view .LVU28
 159 000a 0134     		adds	r4, r4, #1
 160              		.loc 11 21 32 discriminator 2 view .LVU29
 161 000c FFF7FEFF 		bl	_ZN5daisy9DaisySeed6GetPinEh
 162              	.LVL4:
 163 0010 0346     		mov	r3, r0	@ movhi
  20:main.cpp      ****         adcConfig[i].InitSingle(hw.GetPin(15 + i));
 164              		.loc 11 20 23 discriminator 2 view .LVU30
 165 0012 E4B2     		uxtb	r4, r4
 166              		.loc 11 21 32 discriminator 2 view .LVU31
 167 0014 2846     		mov	r0, r5
 168 0016 ADF80C30 		strh	r3, [sp, #12]	@ movhi
 169 001a 0222     		movs	r2, #2
 170 001c 0399     		ldr	r1, [sp, #12]
  20:main.cpp      ****         adcConfig[i].InitSingle(hw.GetPin(15 + i));
 171              		.loc 11 20 23 discriminator 2 view .LVU32
 172 001e 5435     		adds	r5, r5, #84
 173              		.loc 11 21 32 discriminator 2 view .LVU33
 174 0020 FFF7FEFF 		bl	_ZN5daisy16AdcChannelConfig10InitSingleENS_3PinENS0_15ConversionSpeedE
 175              	.LVL5:
  20:main.cpp      ****         adcConfig[i].InitSingle(hw.GetPin(15 + i));
 176              		.loc 11 20 5 is_stmt 1 discriminator 2 view .LVU34
  20:main.cpp      ****         adcConfig[i].InitSingle(hw.GetPin(15 + i));
 177              		.loc 11 20 23 discriminator 2 view .LVU35
 178 0024 152C     		cmp	r4, #21
 179 0026 EFD1     		bne	.L5
 180              	.LBE302:
  22:main.cpp      ****     }
  23:main.cpp      ****     // ADC per il potenziometro (Pin 21)
  24:main.cpp      ****     adcConfig[6].InitSingle(hw.GetPin(21)); 
 181              		.loc 11 24 5 view .LVU36
 182              		.loc 11 24 28 is_stmt 0 view .LVU37
 183 0028 2046     		mov	r0, r4
 184 002a 194D     		ldr	r5, .L10+4
 185 002c FFF7FEFF 		bl	_ZN5daisy9DaisySeed6GetPinEh
 186              	.LVL6:
 187 0030 0346     		mov	r3, r0	@ movhi
 188 0032 0222     		movs	r2, #2
 189 0034 1748     		ldr	r0, .L10+8
 190 0036 ADF81030 		strh	r3, [sp, #16]	@ movhi
  25:main.cpp      **** 
  26:main.cpp      ****     hw.adc.Init(adcConfig, LDR_NUM + ADC_NUM);
  27:main.cpp      ****     hw.adc.Start();
  28:main.cpp      **** 
  29:main.cpp      ****     // Inizializzazione Pulsante (D0)
  30:main.cpp      ****     button.Init(daisy::seed::D0, GPIO::Mode::INPUT, GPIO::Pull::PULLUP);
 191              		.loc 11 30 16 view .LVU38
 192 003a 0124     		movs	r4, #1
  24:main.cpp      **** 
 193              		.loc 11 24 28 view .LVU39
 194 003c 0499     		ldr	r1, [sp, #16]
 195 003e FFF7FEFF 		bl	_ZN5daisy16AdcChannelConfig10InitSingleENS_3PinENS0_15ConversionSpeedE
ARM GAS  C:\Users\skipi\AppData\Local\Temp\ccS8HZje.s 			page 21


 196              	.LVL7:
  26:main.cpp      ****     hw.adc.Start();
 197              		.loc 11 26 5 is_stmt 1 view .LVU40
  26:main.cpp      ****     hw.adc.Start();
 198              		.loc 11 26 16 is_stmt 0 view .LVU41
 199 0042 0423     		movs	r3, #4
 200 0044 0722     		movs	r2, #7
 201 0046 1149     		ldr	r1, .L10
 202 0048 1348     		ldr	r0, .L10+12
 203 004a FFF7FEFF 		bl	_ZN5daisy9AdcHandle4InitEPNS_16AdcChannelConfigEjNS0_12OverSamplingE
 204              	.LVL8:
  27:main.cpp      **** 
 205              		.loc 11 27 5 is_stmt 1 view .LVU42
  27:main.cpp      **** 
 206              		.loc 11 27 17 is_stmt 0 view .LVU43
 207 004e 1248     		ldr	r0, .L10+12
 208 0050 FFF7FEFF 		bl	_ZN5daisy9AdcHandle5StartEv
 209              	.LVL9:
 210              		.loc 11 30 5 is_stmt 1 view .LVU44
 211              		.loc 11 30 16 is_stmt 0 view .LVU45
 212 0054 0022     		movs	r2, #0
 213 0056 1149     		ldr	r1, .L10+16
 214 0058 0123     		movs	r3, #1
 215 005a 1148     		ldr	r0, .L10+20
 216 005c 0968     		ldr	r1, [r1]
 217 005e 0092     		str	r2, [sp]
 218 0060 FFF7FEFF 		bl	_ZN5daisy4GPIO4InitENS_3PinENS0_4ModeENS0_4PullENS0_5SpeedE
 219              	.LVL10:
  31:main.cpp      **** 
  32:main.cpp      ****     // Inizializzazione LED (D1-D6) tramite ciclo
  33:main.cpp      ****     for (int i = 0; i < 6; i++) {
 220              		.loc 11 33 5 is_stmt 1 view .LVU46
 221              	.LBB303:
 222              		.loc 11 33 23 view .LVU47
 223              	.L6:
  34:main.cpp      ****         leds[i].Init(hw.GetPin(1 + i), GPIO::Mode::OUTPUT, GPIO::Pull::PULLUP);
 224              		.loc 11 34 9 discriminator 2 view .LVU48
 225              		.loc 11 34 21 is_stmt 0 discriminator 2 view .LVU49
 226 0064 E0B2     		uxtb	r0, r4
 227 0066 0026     		movs	r6, #0
 228 0068 FFF7FEFF 		bl	_ZN5daisy9DaisySeed6GetPinEh
 229              	.LVL11:
 230 006c 0123     		movs	r3, #1
 231 006e ADF81400 		strh	r0, [sp, #20]	@ movhi
  33:main.cpp      ****         leds[i].Init(hw.GetPin(1 + i), GPIO::Mode::OUTPUT, GPIO::Pull::PULLUP);
 232              		.loc 11 33 23 discriminator 2 view .LVU50
 233 0072 0134     		adds	r4, r4, #1
 234              	.LVL12:
 235              		.loc 11 34 21 discriminator 2 view .LVU51
 236 0074 2846     		mov	r0, r5
 237 0076 1A46     		mov	r2, r3
 238 0078 0599     		ldr	r1, [sp, #20]
  33:main.cpp      ****         leds[i].Init(hw.GetPin(1 + i), GPIO::Mode::OUTPUT, GPIO::Pull::PULLUP);
 239              		.loc 11 33 23 discriminator 2 view .LVU52
 240 007a 1435     		adds	r5, r5, #20
 241              		.loc 11 34 21 discriminator 2 view .LVU53
 242 007c 0096     		str	r6, [sp]
ARM GAS  C:\Users\skipi\AppData\Local\Temp\ccS8HZje.s 			page 22


 243 007e FFF7FEFF 		bl	_ZN5daisy4GPIO4InitENS_3PinENS0_4ModeENS0_4PullENS0_5SpeedE
 244              	.LVL13:
  33:main.cpp      ****         leds[i].Init(hw.GetPin(1 + i), GPIO::Mode::OUTPUT, GPIO::Pull::PULLUP);
 245              		.loc 11 33 5 is_stmt 1 discriminator 2 view .LVU54
  33:main.cpp      ****         leds[i].Init(hw.GetPin(1 + i), GPIO::Mode::OUTPUT, GPIO::Pull::PULLUP);
 246              		.loc 11 33 23 discriminator 2 view .LVU55
 247 0082 072C     		cmp	r4, #7
 248 0084 EED1     		bne	.L6
 249              	.LBE303:
  35:main.cpp      ****     }
  36:main.cpp      **** }
 250              		.loc 11 36 1 is_stmt 0 view .LVU56
 251 0086 06B0     		add	sp, sp, #24
 252              		.cfi_def_cfa_offset 16
 253              		@ sp needed
 254 0088 70BD     		pop	{r4, r5, r6, pc}
 255              	.L11:
 256 008a 00BF     		.align	2
 257              	.L10:
 258 008c 00000000 		.word	.LANCHOR0
 259 0090 00000000 		.word	.LANCHOR4
 260 0094 F8010000 		.word	.LANCHOR0+504
 261 0098 18000000 		.word	.LANCHOR1+24
 262 009c 00000000 		.word	.LANCHOR2
 263 00a0 00000000 		.word	.LANCHOR3
 264              		.cfi_endproc
 265              	.LFE4906:
 267              		.section	.rodata.main.str1.4,"aMS",%progbits,1
 268              		.align	2
 269              	.LC0:
 270 0000 53657475 		.ascii	"Setup Phase: %d\000"
 270      70205068 
 270      6173653A 
 270      20256400 
 271              		.align	2
 272              	.LC1:
 273 0010 53657475 		.ascii	"Setup INTORNO: %f| \000"
 273      7020494E 
 273      544F524E 
 273      4F3A2025 
 273      667C2000 
 274              		.align	2
 275              	.LC2:
 276 0024 4C445220 		.ascii	"LDR mean: %f\000"
 276      6D65616E 
 276      3A202566 
 276      00
 277 0031 000000   		.align	2
 278              	.LC3:
 279 0034 53657475 		.ascii	"Setup LDR %d - Soglia: %f - value: %f\000"
 279      70204C44 
 279      52202564 
 279      202D2053 
 279      6F676C69 
 280 005a 0000     		.align	2
 281              	.LC4:
 282 005c 53657475 		.ascii	"Setup completato. Entro in PLAY MODE.\000"
ARM GAS  C:\Users\skipi\AppData\Local\Temp\ccS8HZje.s 			page 23


 282      7020636F 
 282      6D706C65 
 282      7461746F 
 282      2E20456E 
 283              		.section	.text.startup.main,"ax",%progbits
 284              		.align	1
 285              		.p2align 2,,3
 286              		.global	main
 287              		.syntax unified
 288              		.thumb
 289              		.thumb_func
 290              		.fpu fpv5-d16
 292              	main:
 293              	.LFB4907:
  37:main.cpp      **** 
  38:main.cpp      **** 
  39:main.cpp      **** int main(void)
  40:main.cpp      **** {
 294              		.loc 11 40 1 is_stmt 1 view -0
 295              		.cfi_startproc
 296              		@ args = 0, pretend = 0, frame = 56
 297              		@ frame_needed = 0, uses_anonymous_args = 0
  41:main.cpp      ****     hw.Configure();
 298              		.loc 11 41 5 view .LVU58
  40:main.cpp      ****     hw.Configure();
 299              		.loc 11 40 1 is_stmt 0 view .LVU59
 300 0000 2DE9F043 		push	{r4, r5, r6, r7, r8, r9, lr}
 301              		.cfi_def_cfa_offset 28
 302              		.cfi_offset 4, -28
 303              		.cfi_offset 5, -24
 304              		.cfi_offset 6, -20
 305              		.cfi_offset 7, -16
 306              		.cfi_offset 8, -12
 307              		.cfi_offset 9, -8
 308              		.cfi_offset 14, -4
 309              		.loc 11 41 17 view .LVU60
 310 0004 9148     		ldr	r0, .L61
  42:main.cpp      ****     hw.Init();
  43:main.cpp      ****     InitGPIO();
  44:main.cpp      ****     //MidiUsbHandler::Config midi_cfg;
  45:main.cpp      ****     //midi.Init(midi_cfg);
  46:main.cpp      ****     hw.StartLog(false);
  47:main.cpp      **** 
  48:main.cpp      ****     uint8_t button_cnt = 0;
  49:main.cpp      ****     float   pot_value = 0;
  50:main.cpp      ****     float   thresholds[6] = {0};
  51:main.cpp      ****     float   intorno = 20;
  52:main.cpp      ****     float   ldr[LDR_NUM];
  53:main.cpp      ****     bool    last_button_state = true;
 311              		.loc 11 53 13 view .LVU61
 312 0006 0124     		movs	r4, #1
 313 0008 DFF86092 		ldr	r9, .L61+32
  40:main.cpp      ****     hw.Configure();
 314              		.loc 11 40 1 view .LVU62
 315 000c 2DED048B 		vpush.64	{d8, d9}
 316              		.cfi_def_cfa_offset 44
 317              		.cfi_offset 80, -44
ARM GAS  C:\Users\skipi\AppData\Local\Temp\ccS8HZje.s 			page 24


 318              		.cfi_offset 81, -40
 319              		.cfi_offset 82, -36
 320              		.cfi_offset 83, -32
 321 0010 91B0     		sub	sp, sp, #68
 322              		.cfi_def_cfa_offset 112
  51:main.cpp      ****     float   ldr[LDR_NUM];
 323              		.loc 11 51 13 view .LVU63
 324 0012 F3EE048A 		vmov.f32	s17, #2.0e+1
  41:main.cpp      ****     hw.Init();
 325              		.loc 11 41 17 view .LVU64
 326 0016 FFF7FEFF 		bl	_ZN5daisy9DaisySeed9ConfigureEv
 327              	.LVL14:
  42:main.cpp      ****     hw.Init();
 328              		.loc 11 42 5 is_stmt 1 view .LVU65
  42:main.cpp      ****     hw.Init();
 329              		.loc 11 42 12 is_stmt 0 view .LVU66
 330 001a 0021     		movs	r1, #0
 331 001c 8B48     		ldr	r0, .L61
 332 001e 09F17807 		add	r7, r9, #120
 333 0022 FFF7FEFF 		bl	_ZN5daisy9DaisySeed4InitEb
 334              	.LVL15:
  43:main.cpp      ****     //MidiUsbHandler::Config midi_cfg;
 335              		.loc 11 43 5 is_stmt 1 view .LVU67
  43:main.cpp      ****     //MidiUsbHandler::Config midi_cfg;
 336              		.loc 11 43 13 is_stmt 0 view .LVU68
 337 0026 FFF7FEFF 		bl	_Z8InitGPIOv
 338              	.LVL16:
  46:main.cpp      **** 
 339              		.loc 11 46 5 is_stmt 1 view .LVU69
 340              	.LBB304:
 341              	.LBI304:
  23:../libDaisy/src/daisy_seed.h **** 
  24:../libDaisy/src/daisy_seed.h ****     /** This function used to provide a pre-initialization configuraiton 
  25:../libDaisy/src/daisy_seed.h ****      *  it has since been deprecated, and does nothing.
  26:../libDaisy/src/daisy_seed.h ****      */
  27:../libDaisy/src/daisy_seed.h ****     void Configure();
  28:../libDaisy/src/daisy_seed.h **** 
  29:../libDaisy/src/daisy_seed.h ****     /** 
  30:../libDaisy/src/daisy_seed.h ****     Initializes the Daisy Seed and the following peripherals:
  31:../libDaisy/src/daisy_seed.h ****     SDRAM, QSPI, 24-bit 48kHz Audio via AK4556, Internal USB,
  32:../libDaisy/src/daisy_seed.h ****     as well as the built-in LED and Testpoint.
  33:../libDaisy/src/daisy_seed.h **** 
  34:../libDaisy/src/daisy_seed.h ****     ADCs, DACs, and other special peripherals (such as I2C, SPI, etc.)
  35:../libDaisy/src/daisy_seed.h ****     can be initialized using their specific initializers within libdaisy
  36:../libDaisy/src/daisy_seed.h ****     for a specific application.
  37:../libDaisy/src/daisy_seed.h ****     */
  38:../libDaisy/src/daisy_seed.h ****     void Init(bool boost = false);
  39:../libDaisy/src/daisy_seed.h **** 
  40:../libDaisy/src/daisy_seed.h ****     /** 
  41:../libDaisy/src/daisy_seed.h ****     Deinitializes all peripherals automatically handled by `Init`.
  42:../libDaisy/src/daisy_seed.h ****     */
  43:../libDaisy/src/daisy_seed.h ****     void DeInit();
  44:../libDaisy/src/daisy_seed.h **** 
  45:../libDaisy/src/daisy_seed.h ****     /** 
  46:../libDaisy/src/daisy_seed.h ****     Wait some ms before going on.
  47:../libDaisy/src/daisy_seed.h ****     \param del Delay time in ms.
  48:../libDaisy/src/daisy_seed.h ****     */
ARM GAS  C:\Users\skipi\AppData\Local\Temp\ccS8HZje.s 			page 25


  49:../libDaisy/src/daisy_seed.h ****     void DelayMs(size_t del);
  50:../libDaisy/src/daisy_seed.h **** 
  51:../libDaisy/src/daisy_seed.h ****     /** 
  52:../libDaisy/src/daisy_seed.h ****     Returns the gpio_pin corresponding to the index 0-31.
  53:../libDaisy/src/daisy_seed.h ****     For the given GPIO on the Daisy Seed (labeled 1-32 in docs).
  54:../libDaisy/src/daisy_seed.h ****     */
  55:../libDaisy/src/daisy_seed.h ****     static Pin GetPin(uint8_t pin_idx);
  56:../libDaisy/src/daisy_seed.h **** 
  57:../libDaisy/src/daisy_seed.h ****     /** Begins the audio for the seeds builtin audio.
  58:../libDaisy/src/daisy_seed.h ****     the specified callback will get called whenever
  59:../libDaisy/src/daisy_seed.h ****     new data is ready to be prepared.
  60:../libDaisy/src/daisy_seed.h ****     */
  61:../libDaisy/src/daisy_seed.h ****     void StartAudio(AudioHandle::InterleavingAudioCallback cb);
  62:../libDaisy/src/daisy_seed.h **** 
  63:../libDaisy/src/daisy_seed.h ****     /** Begins the audio for the seeds builtin audio.
  64:../libDaisy/src/daisy_seed.h ****     the specified callback will get called whenever
  65:../libDaisy/src/daisy_seed.h ****     new data is ready to be prepared.
  66:../libDaisy/src/daisy_seed.h ****     This will use the newer non-interleaved callback.
  67:../libDaisy/src/daisy_seed.h ****     */
  68:../libDaisy/src/daisy_seed.h ****     void StartAudio(AudioHandle::AudioCallback cb);
  69:../libDaisy/src/daisy_seed.h **** 
  70:../libDaisy/src/daisy_seed.h ****     /** Changes to a new interleaved callback
  71:../libDaisy/src/daisy_seed.h ****      */
  72:../libDaisy/src/daisy_seed.h ****     void ChangeAudioCallback(AudioHandle::InterleavingAudioCallback cb);
  73:../libDaisy/src/daisy_seed.h **** 
  74:../libDaisy/src/daisy_seed.h ****     /** Changes to a new multichannel callback
  75:../libDaisy/src/daisy_seed.h ****      */
  76:../libDaisy/src/daisy_seed.h ****     void ChangeAudioCallback(AudioHandle::AudioCallback cb);
  77:../libDaisy/src/daisy_seed.h **** 
  78:../libDaisy/src/daisy_seed.h ****     /** Stops the audio if it is running. */
  79:../libDaisy/src/daisy_seed.h ****     void StopAudio();
  80:../libDaisy/src/daisy_seed.h **** 
  81:../libDaisy/src/daisy_seed.h ****     /** Updates the Audio Sample Rate, and reinitializes.
  82:../libDaisy/src/daisy_seed.h ****      ** Audio must be stopped for this to work.
  83:../libDaisy/src/daisy_seed.h ****      */
  84:../libDaisy/src/daisy_seed.h ****     void SetAudioSampleRate(SaiHandle::Config::SampleRate samplerate);
  85:../libDaisy/src/daisy_seed.h **** 
  86:../libDaisy/src/daisy_seed.h ****     /** Returns the audio sample rate in Hz as a floating point number.
  87:../libDaisy/src/daisy_seed.h ****      */
  88:../libDaisy/src/daisy_seed.h ****     float AudioSampleRate();
  89:../libDaisy/src/daisy_seed.h **** 
  90:../libDaisy/src/daisy_seed.h ****     /** Sets the number of samples processed per channel by the audio callback.
  91:../libDaisy/src/daisy_seed.h ****      */
  92:../libDaisy/src/daisy_seed.h ****     void SetAudioBlockSize(size_t blocksize);
  93:../libDaisy/src/daisy_seed.h **** 
  94:../libDaisy/src/daisy_seed.h ****     /** Returns the number of samples per channel in a block of audio. */
  95:../libDaisy/src/daisy_seed.h ****     size_t AudioBlockSize();
  96:../libDaisy/src/daisy_seed.h **** 
  97:../libDaisy/src/daisy_seed.h ****     /** Returns the rate in Hz that the Audio callback is called */
  98:../libDaisy/src/daisy_seed.h ****     float AudioCallbackRate() const;
  99:../libDaisy/src/daisy_seed.h **** 
 100:../libDaisy/src/daisy_seed.h ****     /** Returns the SAI Handle for the Daisy Seed 
 101:../libDaisy/src/daisy_seed.h ****      *  This can be useful when adding a secondary codec,
 102:../libDaisy/src/daisy_seed.h ****      *  the result of this function can be passed to the audio reinit 
 103:../libDaisy/src/daisy_seed.h ****      *  with an SAI2 configuration
 104:../libDaisy/src/daisy_seed.h ****      */
 105:../libDaisy/src/daisy_seed.h ****     const SaiHandle& AudioSaiHandle() const;
ARM GAS  C:\Users\skipi\AppData\Local\Temp\ccS8HZje.s 			page 26


 106:../libDaisy/src/daisy_seed.h **** 
 107:../libDaisy/src/daisy_seed.h ****     /** Sets the state of the built in LED
 108:../libDaisy/src/daisy_seed.h ****      */
 109:../libDaisy/src/daisy_seed.h ****     void SetLed(bool state);
 110:../libDaisy/src/daisy_seed.h **** 
 111:../libDaisy/src/daisy_seed.h ****     /** Sets the state of the test point near pin 10
 112:../libDaisy/src/daisy_seed.h ****      */
 113:../libDaisy/src/daisy_seed.h ****     void SetTestPoint(bool state);
 114:../libDaisy/src/daisy_seed.h **** 
 115:../libDaisy/src/daisy_seed.h ****     /** Print formatted debug log message
 116:../libDaisy/src/daisy_seed.h ****      */
 117:../libDaisy/src/daisy_seed.h ****     template <typename... VA>
 118:../libDaisy/src/daisy_seed.h ****     static void Print(const char* format, VA... va)
 119:../libDaisy/src/daisy_seed.h ****     {
 120:../libDaisy/src/daisy_seed.h ****         Log::Print(format, va...);
 121:../libDaisy/src/daisy_seed.h ****     }
 122:../libDaisy/src/daisy_seed.h **** 
 123:../libDaisy/src/daisy_seed.h ****     /** Print formatted debug log message with automatic line termination
 124:../libDaisy/src/daisy_seed.h ****     */
 125:../libDaisy/src/daisy_seed.h ****     template <typename... VA>
 126:../libDaisy/src/daisy_seed.h ****     static void PrintLine(const char* format, VA... va)
 127:../libDaisy/src/daisy_seed.h ****     {
 128:../libDaisy/src/daisy_seed.h ****         Log::PrintLine(format, va...);
 129:../libDaisy/src/daisy_seed.h ****     }
 130:../libDaisy/src/daisy_seed.h **** 
 131:../libDaisy/src/daisy_seed.h ****     /** Start the logging session. Optionally wait for terminal connection before proceeding.
 132:../libDaisy/src/daisy_seed.h ****     */
 133:../libDaisy/src/daisy_seed.h ****     static void StartLog(bool wait_for_pc = false)
 342              		.loc 1 133 17 view .LVU70
 343              	.LBB305:
 134:../libDaisy/src/daisy_seed.h ****     {
 135:../libDaisy/src/daisy_seed.h ****         Log::StartLog(wait_for_pc);
 344              		.loc 1 135 9 view .LVU71
 345              		.loc 1 135 22 is_stmt 0 view .LVU72
 346 002a 0020     		movs	r0, #0
 347 002c FFF7FEFF 		bl	_ZN5daisy6LoggerILNS_17LoggerDestinationE1EE8StartLogEb
 348              	.LVL17:
 349              		.loc 1 135 22 view .LVU73
 350              	.LBE305:
 351              	.LBE304:
  48:main.cpp      ****     float   pot_value = 0;
 352              		.loc 11 48 5 is_stmt 1 view .LVU74
  49:main.cpp      ****     float   thresholds[6] = {0};
 353              		.loc 11 49 5 view .LVU75
  50:main.cpp      ****     float   intorno = 20;
 354              		.loc 11 50 5 view .LVU76
  50:main.cpp      ****     float   intorno = 20;
 355              		.loc 11 50 13 is_stmt 0 view .LVU77
 356 0030 0023     		movs	r3, #0
  48:main.cpp      ****     float   pot_value = 0;
 357              		.loc 11 48 13 view .LVU78
 358 0032 9846     		mov	r8, r3
  50:main.cpp      ****     float   intorno = 20;
 359              		.loc 11 50 13 view .LVU79
 360 0034 CDE90433 		strd	r3, r3, [sp, #16]
 361 0038 CDE90633 		strd	r3, r3, [sp, #24]
 362 003c CDE90833 		strd	r3, r3, [sp, #32]
ARM GAS  C:\Users\skipi\AppData\Local\Temp\ccS8HZje.s 			page 27


  51:main.cpp      ****     float   ldr[LDR_NUM];
 363              		.loc 11 51 5 is_stmt 1 view .LVU80
 364              	.LVL18:
  52:main.cpp      ****     bool    last_button_state = true;
 365              		.loc 11 52 5 view .LVU81
 366              		.loc 11 53 5 view .LVU82
  54:main.cpp      ****     float ldr_mean = 0;
 367              		.loc 11 54 5 view .LVU83
  55:main.cpp      **** 
  56:main.cpp      **** 
  57:main.cpp      **** 
  58:main.cpp      ****     while(button_cnt < 7) 
 368              		.loc 11 58 5 view .LVU84
 369              		.loc 11 58 22 view .LVU85
 370              	.L34:
 371              	.LBB306:
  59:main.cpp      ****     {
  60:main.cpp      ****         
  61:main.cpp      ****         bool current_button_state = button.Read();
 372              		.loc 11 61 9 view .LVU86
 373              		.loc 11 61 48 is_stmt 0 view .LVU87
 374 0040 8348     		ldr	r0, .L61+4
 375 0042 FFF7FEFF 		bl	_ZN5daisy4GPIO4ReadEv
 376              	.LVL19:
  62:main.cpp      ****         if (current_button_state == false && last_button_state == true) {
 377              		.loc 11 62 9 view .LVU88
 378 0046 80F00103 		eor	r3, r0, #1
  61:main.cpp      ****         if (current_button_state == false && last_button_state == true) {
 379              		.loc 11 61 48 view .LVU89
 380 004a 0646     		mov	r6, r0
 381              	.LVL20:
 382              		.loc 11 62 9 is_stmt 1 view .LVU90
 383              		.loc 11 62 43 is_stmt 0 view .LVU91
 384 004c DBB2     		uxtb	r3, r3
 385 004e 13B1     		cbz	r3, .L13
 386 0050 002C     		cmp	r4, #0
 387 0052 40F08C80 		bne	.L56
 388              	.L13:
  63:main.cpp      ****             button_cnt++;
  64:main.cpp      ****             hw.PrintLine("Setup Phase: %d", button_cnt);
  65:main.cpp      ****             hw.DelayMs(50); 
  66:main.cpp      ****         }
  67:main.cpp      ****         last_button_state = current_button_state;
 389              		.loc 11 67 9 is_stmt 1 view .LVU92
 390              	.LVL21:
  68:main.cpp      **** 
  69:main.cpp      ****         pot_value = hw.adc.Get(6);
 391              		.loc 11 69 9 view .LVU93
 392              		.loc 11 69 31 is_stmt 0 view .LVU94
 393 0056 0621     		movs	r1, #6
 394 0058 7E48     		ldr	r0, .L61+8
 395 005a FFF7FEFF 		bl	_ZNK5daisy9AdcHandle3GetEh
 396              	.LVL22:
 397              		.loc 11 69 19 view .LVU95
 398 005e 07EE900A 		vmov	s15, r0	@ int
 399 0062 0AAD     		add	r5, sp, #40
 400              	.LBB307:
ARM GAS  C:\Users\skipi\AppData\Local\Temp\ccS8HZje.s 			page 28


  70:main.cpp      ****         for (int i = 0; i < LDR_NUM; i++) {
 401              		.loc 11 70 18 view .LVU96
 402 0064 0024     		movs	r4, #0
 403              	.LBE307:
  69:main.cpp      ****         for (int i = 0; i < LDR_NUM; i++) {
 404              		.loc 11 69 19 view .LVU97
 405 0066 B8EE678A 		vcvt.f32.u32	s16, s15
 406              	.LVL23:
 407              		.loc 11 70 9 is_stmt 1 view .LVU98
 408              	.LBB308:
 409              		.loc 11 70 27 view .LVU99
 410              	.L14:
  71:main.cpp      ****             ldr[i] = hw.adc.Get(i);
 411              		.loc 11 71 13 discriminator 2 view .LVU100
 412              		.loc 11 71 32 is_stmt 0 discriminator 2 view .LVU101
 413 006a E1B2     		uxtb	r1, r4
 414 006c 7948     		ldr	r0, .L61+8
 415 006e FFF7FEFF 		bl	_ZNK5daisy9AdcHandle3GetEh
 416              	.LVL24:
 417 0072 07EE900A 		vmov	s15, r0	@ int
  70:main.cpp      ****         for (int i = 0; i < LDR_NUM; i++) {
 418              		.loc 11 70 9 discriminator 2 view .LVU102
 419 0076 0134     		adds	r4, r4, #1
 420              	.LVL25:
  72:main.cpp      ****             System::DelayUs(50); 
 421              		.loc 11 72 28 discriminator 2 view .LVU103
 422 0078 3220     		movs	r0, #50
  71:main.cpp      ****             ldr[i] = hw.adc.Get(i);
 423              		.loc 11 71 20 discriminator 2 view .LVU104
 424 007a F8EE677A 		vcvt.f32.u32	s15, s15
 425 007e E5EC017A 		vstmia.32	r5!, {s15}
 426              		.loc 11 72 13 is_stmt 1 discriminator 2 view .LVU105
 427              		.loc 11 72 28 is_stmt 0 discriminator 2 view .LVU106
 428 0082 FFF7FEFF 		bl	_ZN5daisy6System7DelayUsEm
 429              	.LVL26:
  70:main.cpp      ****             ldr[i] = hw.adc.Get(i);
 430              		.loc 11 70 9 is_stmt 1 discriminator 2 view .LVU107
  70:main.cpp      ****             ldr[i] = hw.adc.Get(i);
 431              		.loc 11 70 27 discriminator 2 view .LVU108
 432 0086 062C     		cmp	r4, #6
 433 0088 EFD1     		bne	.L14
 434              	.LBE308:
  73:main.cpp      ****         }
  74:main.cpp      ****         //ldr_mean = (ldr[0] + ldr[1] + ldr[2] + ldr[3] + ldr[4] + ldr[5]) / LDR_NUM;
  75:main.cpp      ****         ldr_mean = (ldr[4] + ldr[5]) / 2.0f;
 435              		.loc 11 75 9 view .LVU109
 436              	.LVL27:
  76:main.cpp      ****   
  77:main.cpp      ****       
  78:main.cpp      ****         
  79:main.cpp      **** 
  80:main.cpp      ****         if (button_cnt == 0) {
 437              		.loc 11 80 9 view .LVU110
 438              	.LBB309:
 439 008a B8F1000F 		cmp	r8, #0
 440 008e 38D0     		beq	.L57
 441              	.LBE309:
ARM GAS  C:\Users\skipi\AppData\Local\Temp\ccS8HZje.s 			page 29


 442              	.LBE306:
  81:main.cpp      ****             // Intorno State
  82:main.cpp      ****             intorno =  (pot_value / 65535.0f) * 500.0f;
  83:main.cpp      ****             hw.PrintLine("Setup INTORNO: %f| ", intorno);
  84:main.cpp      ****             hw.PrintLine("LDR mean: %f", ldr_mean);
  85:main.cpp      ****             if (intorno < ldr_mean){
  86:main.cpp      ****                 for(int i=0; i<6; i++) leds[i].Write(true);
  87:main.cpp      ****             } else {
  88:main.cpp      ****                 for(int i=0; i<6; i++) leds[i].Write(false);
  89:main.cpp      ****             }
  90:main.cpp      ****             
  91:main.cpp      ****         } 
  92:main.cpp      ****         else if (button_cnt >= 1 && button_cnt <= 6) {
 443              		.loc 11 92 14 view .LVU111
 444              	.LBB336:
 445              	.LBB327:
 446              	.LBB310:
 447 0090 B8F1070F 		cmp	r8, #7
 448 0094 78D0     		beq	.L21
 449              	.LBB311:
  93:main.cpp      ****             // Calibrazione singola soglia LDR
  94:main.cpp      ****             int i = button_cnt - 1;
 450              		.loc 11 94 13 view .LVU112
  95:main.cpp      ****             thresholds[i] = intorno  + (pot_value / 65535.0f) * 150.0f;
 451              		.loc 11 95 51 is_stmt 0 view .LVU113
 452 0096 9FED706A 		vldr.32	s12, .L61+12
  94:main.cpp      ****             thresholds[i] = intorno  + (pot_value / 65535.0f) * 150.0f;
 453              		.loc 11 94 17 view .LVU114
 454 009a 08F1FF34 		add	r4, r8, #-1
 455              	.LVL28:
 456              		.loc 11 95 13 is_stmt 1 view .LVU115
 457              		.loc 11 95 27 is_stmt 0 view .LVU116
 458 009e 10AB     		add	r3, sp, #64
 459              		.loc 11 95 38 view .LVU117
 460 00a0 B0EE689A 		vmov.f32	s18, s17
 461              		.loc 11 95 51 view .LVU118
 462 00a4 C8EE066A 		vdiv.f32	s13, s16, s12
 463              		.loc 11 95 38 view .LVU119
 464 00a8 9FED6C7A 		vldr.32	s14, .L61+16
 465              		.loc 11 95 27 view .LVU120
 466 00ac 03EB8402 		add	r2, r3, r4, lsl #2
 467 00b0 A300     		lsls	r3, r4, #2
  96:main.cpp      ****             
  97:main.cpp      ****             if (ldr[i] + 20 > thresholds[i]) {
 468              		.loc 11 97 22 view .LVU121
 469 00b2 12ED068A 		vldr.32	s16, [r2, #-24]
 470              	.LVL29:
  98:main.cpp      ****                 leds[i].Write(false);
 471              		.loc 11 98 30 view .LVU122
 472 00b6 2344     		add	r3, r3, r4
  97:main.cpp      ****                 leds[i].Write(false);
 473              		.loc 11 97 24 view .LVU123
 474 00b8 F3EE047A 		vmov.f32	s15, #2.0e+1
  99:main.cpp      ****             } else {
 100:main.cpp      ****                 leds[i].Write(true);
 475              		.loc 11 100 30 view .LVU124
 476 00bc 09EB8300 		add	r0, r9, r3, lsl #2
ARM GAS  C:\Users\skipi\AppData\Local\Temp\ccS8HZje.s 			page 30


  97:main.cpp      ****                 leds[i].Write(false);
 477              		.loc 11 97 24 view .LVU125
 478 00c0 78EE277A 		vadd.f32	s15, s16, s15
  95:main.cpp      ****             
 479              		.loc 11 95 38 view .LVU126
 480 00c4 A6EE879A 		vfma.f32	s18, s13, s14
  97:main.cpp      ****                 leds[i].Write(false);
 481              		.loc 11 97 13 view .LVU127
 482 00c8 B4EEE79A 		vcmpe.f32	s18, s15
  95:main.cpp      ****             
 483              		.loc 11 95 27 view .LVU128
 484 00cc 02ED0C9A 		vstr.32	s18, [r2, #-48]
  97:main.cpp      ****                 leds[i].Write(false);
 485              		.loc 11 97 13 is_stmt 1 view .LVU129
  98:main.cpp      ****             } else {
 486              		.loc 11 98 17 view .LVU130
 487              		.loc 11 100 17 view .LVU131
  97:main.cpp      ****                 leds[i].Write(false);
 488              		.loc 11 97 13 is_stmt 0 view .LVU132
 489 00d0 F1EE10FA 		vmrs	APSR_nzcv, FPSCR
  98:main.cpp      ****             } else {
 490              		.loc 11 98 30 view .LVU133
 491 00d4 4CBF     		ite	mi
 492 00d6 0021     		movmi	r1, #0
 493              		.loc 11 100 30 view .LVU134
 494 00d8 0121     		movpl	r1, #1
 495 00da FFF7FEFF 		bl	_ZN5daisy4GPIO5WriteEb
 496              	.LVL30:
 101:main.cpp      ****             }
 102:main.cpp      ****             
 103:main.cpp      ****             hw.PrintLine("Setup LDR %d - Soglia: %f - value: %f", i, thresholds[i], ldr[i]);
 497              		.loc 11 103 13 is_stmt 1 view .LVU135
 498              	.LBB312:
 499              	.LBI312:
 126:../libDaisy/src/daisy_seed.h ****     {
 500              		.loc 1 126 17 view .LVU136
 501              	.LBB313:
 128:../libDaisy/src/daisy_seed.h ****     }
 502              		.loc 1 128 23 is_stmt 0 view .LVU137
 503 00de B7EEC87A 		vcvt.f64.f32	d7, s16
 504 00e2 B7EEC96A 		vcvt.f64.f32	d6, s18
 505 00e6 2146     		mov	r1, r4
 506 00e8 5D48     		ldr	r0, .L61+20
 507 00ea 53EC162B 		vmov	r2, r3, d6
 508 00ee 8DED007B 		vstr.64	d7, [sp]
 509 00f2 FFF7FEFF 		bl	_ZN5daisy6LoggerILNS_17LoggerDestinationE1EE9PrintLineEPKcz
 510              	.LVL31:
 511              	.L18:
 128:../libDaisy/src/daisy_seed.h ****     }
 512              		.loc 1 128 23 view .LVU138
 513              	.LBE313:
 514              	.LBE312:
 515              	.LBE311:
 516              	.LBE310:
 517              	.LBE327:
 104:main.cpp      ****         }
 105:main.cpp      ****         
ARM GAS  C:\Users\skipi\AppData\Local\Temp\ccS8HZje.s 			page 31


 106:main.cpp      ****         hw.DelayMs(50);
 518              		.loc 11 106 9 is_stmt 1 view .LVU139
 519              		.loc 11 106 19 is_stmt 0 view .LVU140
 520 00f6 3221     		movs	r1, #50
 521 00f8 5448     		ldr	r0, .L61
  61:main.cpp      ****         if (current_button_state == false && last_button_state == true) {
 522              		.loc 11 61 48 view .LVU141
 523 00fa 3446     		mov	r4, r6
 524              		.loc 11 106 19 view .LVU142
 525 00fc FFF7FEFF 		bl	_ZN5daisy9DaisySeed7DelayMsEj
 526              	.LVL32:
 527              		.loc 11 106 19 view .LVU143
 528              	.LBE336:
  58:main.cpp      ****     {
 529              		.loc 11 58 5 is_stmt 1 view .LVU144
  58:main.cpp      ****     {
 530              		.loc 11 58 22 view .LVU145
 531 0100 9EE7     		b	.L34
 532              	.LVL33:
 533              	.L57:
 534              	.LBB337:
 535              	.LBB328:
 536              	.LBB314:
  82:main.cpp      ****             hw.PrintLine("Setup INTORNO: %f| ", intorno);
 537              		.loc 11 82 35 is_stmt 0 view .LVU146
 538 0102 9FED557A 		vldr.32	s14, .L61+12
 539              	.LBE314:
 540              	.LBE328:
  75:main.cpp      ****   
 541              		.loc 11 75 18 view .LVU147
 542 0106 F6EE006A 		vmov.f32	s13, #5.0e-1
  75:main.cpp      ****   
 543              		.loc 11 75 28 view .LVU148
 544 010a DDED0E7A 		vldr.32	s15, [sp, #56]
 545              	.LBB329:
 546              	.LBB324:
  82:main.cpp      ****             hw.PrintLine("Setup INTORNO: %f| ", intorno);
 547              		.loc 11 82 35 view .LVU149
 548 010e C8EE078A 		vdiv.f32	s17, s16, s14
  82:main.cpp      ****             hw.PrintLine("Setup INTORNO: %f| ", intorno);
 549              		.loc 11 82 21 view .LVU150
 550 0112 9FED547A 		vldr.32	s14, .L61+24
 551              	.LBE324:
 552              	.LBE329:
  75:main.cpp      ****   
 553              		.loc 11 75 28 view .LVU151
 554 0116 9DED0F6A 		vldr.32	s12, [sp, #60]
 555              	.LBB330:
 556              	.LBB325:
 557              	.LBB315:
 558              	.LBB316:
 128:../libDaisy/src/daisy_seed.h ****     }
 559              		.loc 1 128 23 view .LVU152
 560 011a 5348     		ldr	r0, .L61+28
 561 011c 534C     		ldr	r4, .L61+32
 562              	.LVL34:
 128:../libDaisy/src/daisy_seed.h ****     }
ARM GAS  C:\Users\skipi\AppData\Local\Temp\ccS8HZje.s 			page 32


 563              		.loc 1 128 23 view .LVU153
 564              	.LBE316:
 565              	.LBE315:
 566              	.LBE325:
 567              	.LBE330:
  75:main.cpp      ****   
 568              		.loc 11 75 28 view .LVU154
 569 011e 37EE868A 		vadd.f32	s16, s15, s12
 570              	.LVL35:
  75:main.cpp      ****   
 571              		.loc 11 75 18 view .LVU155
 572 0122 28EE268A 		vmul.f32	s16, s16, s13
 573              	.LBB331:
 574              	.LBB326:
  82:main.cpp      ****             hw.PrintLine("Setup INTORNO: %f| ", intorno);
 575              		.loc 11 82 13 is_stmt 1 view .LVU156
 576              	.LVL36:
  82:main.cpp      ****             hw.PrintLine("Setup INTORNO: %f| ", intorno);
 577              		.loc 11 82 21 is_stmt 0 view .LVU157
 578 0126 68EE878A 		vmul.f32	s17, s17, s14
 579              	.LVL37:
  83:main.cpp      ****             hw.PrintLine("LDR mean: %f", ldr_mean);
 580              		.loc 11 83 13 is_stmt 1 view .LVU158
 581              	.LBB318:
 582              	.LBI315:
 126:../libDaisy/src/daisy_seed.h ****     {
 583              		.loc 1 126 17 view .LVU159
 584              	.LBB317:
 128:../libDaisy/src/daisy_seed.h ****     }
 585              		.loc 1 128 23 is_stmt 0 view .LVU160
 586 012a B7EEE87A 		vcvt.f64.f32	d7, s17
 587 012e 53EC172B 		vmov	r2, r3, d7
 588 0132 FFF7FEFF 		bl	_ZN5daisy6LoggerILNS_17LoggerDestinationE1EE9PrintLineEPKcz
 589              	.LVL38:
 128:../libDaisy/src/daisy_seed.h ****     }
 590              		.loc 1 128 23 view .LVU161
 591              	.LBE317:
 592              	.LBE318:
  84:main.cpp      ****             if (intorno < ldr_mean){
 593              		.loc 11 84 13 is_stmt 1 view .LVU162
 594              	.LBB319:
 595              	.LBI319:
 126:../libDaisy/src/daisy_seed.h ****     {
 596              		.loc 1 126 17 view .LVU163
 597              	.LBB320:
 128:../libDaisy/src/daisy_seed.h ****     }
 598              		.loc 1 128 23 is_stmt 0 view .LVU164
 599 0136 B7EEC87A 		vcvt.f64.f32	d7, s16
 600 013a 4D48     		ldr	r0, .L61+36
 601 013c 53EC172B 		vmov	r2, r3, d7
 602 0140 FFF7FEFF 		bl	_ZN5daisy6LoggerILNS_17LoggerDestinationE1EE9PrintLineEPKcz
 603              	.LVL39:
 128:../libDaisy/src/daisy_seed.h ****     }
 604              		.loc 1 128 23 view .LVU165
 605              	.LBE320:
 606              	.LBE319:
  85:main.cpp      ****                 for(int i=0; i<6; i++) leds[i].Write(true);
ARM GAS  C:\Users\skipi\AppData\Local\Temp\ccS8HZje.s 			page 33


 607              		.loc 11 85 13 is_stmt 1 view .LVU166
 608              	.LBB321:
 609 0144 B4EEE88A 		vcmpe.f32	s16, s17
 610 0148 F1EE10FA 		vmrs	APSR_nzcv, FPSCR
 611 014c 07DD     		ble	.L20
 612              	.L19:
 613              	.LBB322:
  86:main.cpp      ****             } else {
 614              		.loc 11 86 40 discriminator 2 view .LVU167
  86:main.cpp      ****             } else {
 615              		.loc 11 86 53 is_stmt 0 discriminator 2 view .LVU168
 616 014e 2046     		mov	r0, r4
  86:main.cpp      ****             } else {
 617              		.loc 11 86 31 discriminator 2 view .LVU169
 618 0150 1434     		adds	r4, r4, #20
  86:main.cpp      ****             } else {
 619              		.loc 11 86 53 discriminator 2 view .LVU170
 620 0152 0121     		movs	r1, #1
 621 0154 FFF7FEFF 		bl	_ZN5daisy4GPIO5WriteEb
 622              	.LVL40:
  86:main.cpp      ****             } else {
 623              		.loc 11 86 17 is_stmt 1 discriminator 2 view .LVU171
  86:main.cpp      ****             } else {
 624              		.loc 11 86 31 discriminator 2 view .LVU172
 625 0158 BC42     		cmp	r4, r7
 626 015a F8D1     		bne	.L19
 627 015c CBE7     		b	.L18
 628              	.L20:
 629              	.LBE322:
 630              	.LBB323:
  88:main.cpp      ****             }
 631              		.loc 11 88 40 discriminator 2 view .LVU173
  88:main.cpp      ****             }
 632              		.loc 11 88 53 is_stmt 0 discriminator 2 view .LVU174
 633 015e 2046     		mov	r0, r4
  88:main.cpp      ****             }
 634              		.loc 11 88 31 discriminator 2 view .LVU175
 635 0160 1434     		adds	r4, r4, #20
  88:main.cpp      ****             }
 636              		.loc 11 88 53 discriminator 2 view .LVU176
 637 0162 0021     		movs	r1, #0
 638 0164 FFF7FEFF 		bl	_ZN5daisy4GPIO5WriteEb
 639              	.LVL41:
  88:main.cpp      ****             }
 640              		.loc 11 88 17 is_stmt 1 discriminator 2 view .LVU177
  88:main.cpp      ****             }
 641              		.loc 11 88 31 discriminator 2 view .LVU178
 642 0168 BC42     		cmp	r4, r7
 643 016a F8D1     		bne	.L20
 644 016c C3E7     		b	.L18
 645              	.LVL42:
 646              	.L56:
  88:main.cpp      ****             }
 647              		.loc 11 88 31 is_stmt 0 discriminator 2 view .LVU179
 648              	.LBE323:
 649              	.LBE321:
 650              	.LBE326:
ARM GAS  C:\Users\skipi\AppData\Local\Temp\ccS8HZje.s 			page 34


 651              	.LBE331:
  63:main.cpp      ****             hw.PrintLine("Setup Phase: %d", button_cnt);
 652              		.loc 11 63 13 is_stmt 1 view .LVU180
  63:main.cpp      ****             hw.PrintLine("Setup Phase: %d", button_cnt);
 653              		.loc 11 63 23 is_stmt 0 view .LVU181
 654 016e 08F10108 		add	r8, r8, #1
 655              	.LVL43:
 656              	.LBB332:
 657              	.LBB333:
 128:../libDaisy/src/daisy_seed.h ****     }
 658              		.loc 1 128 23 view .LVU182
 659 0172 4048     		ldr	r0, .L61+40
 660              	.LBE333:
 661              	.LBE332:
  63:main.cpp      ****             hw.PrintLine("Setup Phase: %d", button_cnt);
 662              		.loc 11 63 23 view .LVU183
 663 0174 5FFA88F8 		uxtb	r8, r8
 664              	.LVL44:
  64:main.cpp      ****             hw.DelayMs(50); 
 665              		.loc 11 64 13 is_stmt 1 view .LVU184
 666              	.LBB335:
 667              	.LBI332:
 126:../libDaisy/src/daisy_seed.h ****     {
 668              		.loc 1 126 17 view .LVU185
 669              	.LBB334:
 128:../libDaisy/src/daisy_seed.h ****     }
 670              		.loc 1 128 23 is_stmt 0 view .LVU186
 671 0178 4146     		mov	r1, r8
 672 017a FFF7FEFF 		bl	_ZN5daisy6LoggerILNS_17LoggerDestinationE1EE9PrintLineEPKcz
 673              	.LVL45:
 128:../libDaisy/src/daisy_seed.h ****     }
 674              		.loc 1 128 23 view .LVU187
 675              	.LBE334:
 676              	.LBE335:
  65:main.cpp      ****         }
 677              		.loc 11 65 13 is_stmt 1 view .LVU188
  65:main.cpp      ****         }
 678              		.loc 11 65 23 is_stmt 0 view .LVU189
 679 017e 3221     		movs	r1, #50
 680 0180 3248     		ldr	r0, .L61
 681 0182 FFF7FEFF 		bl	_ZN5daisy9DaisySeed7DelayMsEj
 682              	.LVL46:
 683 0186 66E7     		b	.L13
 684              	.LVL47:
 685              	.L21:
 686              		.loc 11 106 9 is_stmt 1 view .LVU190
 687              		.loc 11 106 19 is_stmt 0 view .LVU191
 688 0188 3048     		ldr	r0, .L61
 689 018a 3221     		movs	r1, #50
 690 018c FFF7FEFF 		bl	_ZN5daisy9DaisySeed7DelayMsEj
 691              	.LVL48:
 692              		.loc 11 106 19 view .LVU192
 693              	.LBE337:
  58:main.cpp      ****     {
 694              		.loc 11 58 5 is_stmt 1 view .LVU193
  58:main.cpp      ****     {
 695              		.loc 11 58 22 view .LVU194
ARM GAS  C:\Users\skipi\AppData\Local\Temp\ccS8HZje.s 			page 35


 107:main.cpp      ****     }
 108:main.cpp      **** 
 109:main.cpp      ****     // --- PLAY MODE (Loop infinito) ---
 110:main.cpp      ****     hw.PrintLine("Setup completato. Entro in PLAY MODE.");
 696              		.loc 11 110 5 view .LVU195
 697              	.LBB338:
 698              	.LBI338:
 126:../libDaisy/src/daisy_seed.h ****     {
 699              		.loc 1 126 17 view .LVU196
 700              	.LBB339:
 128:../libDaisy/src/daisy_seed.h ****     }
 701              		.loc 1 128 23 is_stmt 0 view .LVU197
 702 0190 3948     		ldr	r0, .L61+44
 703 0192 364C     		ldr	r4, .L61+32
 704              	.LVL49:
 128:../libDaisy/src/daisy_seed.h ****     }
 705              		.loc 1 128 23 view .LVU198
 706 0194 FFF7FEFF 		bl	_ZN5daisy6LoggerILNS_17LoggerDestinationE1EE9PrintLineEPKcz
 707              	.LVL50:
 128:../libDaisy/src/daisy_seed.h ****     }
 708              		.loc 1 128 23 view .LVU199
 709              	.LBE339:
 710              	.LBE338:
 111:main.cpp      ****     for(int i=0; i<6; i++) leds[i].Write(false);
 711              		.loc 11 111 5 is_stmt 1 view .LVU200
 712              	.LBB341:
 713              		.loc 11 111 19 view .LVU201
 714              	.L25:
 715              		.loc 11 111 28 discriminator 2 view .LVU202
 716              		.loc 11 111 41 is_stmt 0 discriminator 2 view .LVU203
 717 0198 2046     		mov	r0, r4
 718              		.loc 11 111 19 discriminator 2 view .LVU204
 719 019a 1434     		adds	r4, r4, #20
 720              		.loc 11 111 41 discriminator 2 view .LVU205
 721 019c 0021     		movs	r1, #0
 722 019e FFF7FEFF 		bl	_ZN5daisy4GPIO5WriteEb
 723              	.LVL51:
 724              		.loc 11 111 5 is_stmt 1 discriminator 2 view .LVU206
 725              		.loc 11 111 19 discriminator 2 view .LVU207
 726 01a2 BC42     		cmp	r4, r7
 727 01a4 F8D1     		bne	.L25
 728              	.LBE341:
 112:main.cpp      ****  
 113:main.cpp      ****     bool is_playing[LDR_NUM] = {false}; 
 729              		.loc 11 113 5 view .LVU208
 730              		.loc 11 113 10 is_stmt 0 view .LVU209
 731 01a6 0023     		movs	r3, #0
 732 01a8 0293     		str	r3, [sp, #8]
 733 01aa ADF80C30 		strh	r3, [sp, #12]	@ movhi
 734              	.LVL52:
 735              	.L32:
 114:main.cpp      **** 
 115:main.cpp      ****     while(1)
 736              		.loc 11 115 5 is_stmt 1 view .LVU210
 737              	.LBB342:
 116:main.cpp      ****     {
 117:main.cpp      ****         for (int i = 0; i < LDR_NUM; i++) {
ARM GAS  C:\Users\skipi\AppData\Local\Temp\ccS8HZje.s 			page 36


 738              		.loc 11 117 9 view .LVU211
 739              	.LBB343:
 740              		.loc 11 117 27 view .LVU212
 741 01ae 04AF     		add	r7, sp, #16
 742 01b0 02AD     		add	r5, sp, #8
 743              	.LBE343:
 744              	.LBE342:
 745              	.LBB346:
 746              	.LBB340:
 128:../libDaisy/src/daisy_seed.h ****     }
 747              		.loc 1 128 23 is_stmt 0 view .LVU213
 748 01b2 4E46     		mov	r6, r9
 749              	.LBE340:
 750              	.LBE346:
 751              	.LBB347:
 752              	.LBB344:
 753              		.loc 11 117 18 view .LVU214
 754 01b4 0024     		movs	r4, #0
 755 01b6 12E0     		b	.L31
 756              	.LVL53:
 757              	.L60:
 118:main.cpp      ****             ldr[i] = hw.adc.Get(i);
 119:main.cpp      ****             
 120:main.cpp      ****             System::DelayUs(50); 
 121:main.cpp      **** 
 122:main.cpp      ****             // 2. Tocco rilevato E la nota NON stava già suonando
 123:main.cpp      ****             if (ldr[i] > thresholds[i] && is_playing[i] == false) {
 124:main.cpp      ****                 
 125:main.cpp      ****                 is_playing[i] = true; 
 126:main.cpp      ****                 
 127:main.cpp      ****                 leds[i].Write(true);
 128:main.cpp      ****                 //midi.SendNoteOn(0, V0 + i, 100);
 129:main.cpp      ****                 
 130:main.cpp      ****                 hw.DelayMs(100); // Durata della nota
 131:main.cpp      ****                 
 132:main.cpp      ****                 //midi.SendNoteOff(0, V0 + i, 0);
 133:main.cpp      ****                 leds[i].Write(false);
 134:main.cpp      ****             }
 135:main.cpp      ****             else if (ldr[i] < (thresholds[i] - 15) && is_playing[i] == true) {
 758              		.loc 11 135 18 is_stmt 1 discriminator 1 view .LVU215
 123:main.cpp      ****                 
 759              		.loc 11 123 40 is_stmt 0 discriminator 1 view .LVU216
 760 01b8 95F80080 		ldrb	r8, [r5]	@ zero_extendqisi2
 761 01bc B8F1000F 		cmp	r8, #0
 762 01c0 35D0     		beq	.L58
 763              		.loc 11 135 46 view .LVU217
 764 01c2 77EEC77A 		vsub.f32	s15, s15, s14
 765              		.loc 11 135 18 view .LVU218
 766 01c6 B4EEE78A 		vcmpe.f32	s16, s15
 767 01ca F1EE10FA 		vmrs	APSR_nzcv, FPSCR
 768 01ce 01D5     		bpl	.L29
 769              	.L33:
 136:main.cpp      ****                 
 137:main.cpp      ****                 is_playing[i] = false; // Riattiva il sensore per il prossimo tocco
 770              		.loc 11 137 17 is_stmt 1 view .LVU219
 771              		.loc 11 137 31 is_stmt 0 view .LVU220
 772 01d0 0023     		movs	r3, #0
ARM GAS  C:\Users\skipi\AppData\Local\Temp\ccS8HZje.s 			page 37


 773 01d2 2B70     		strb	r3, [r5]
 774              	.L29:
 117:main.cpp      ****             ldr[i] = hw.adc.Get(i);
 775              		.loc 11 117 9 is_stmt 1 discriminator 2 view .LVU221
 776 01d4 0134     		adds	r4, r4, #1
 777              	.LVL54:
 117:main.cpp      ****             ldr[i] = hw.adc.Get(i);
 778              		.loc 11 117 27 discriminator 2 view .LVU222
 779 01d6 0135     		adds	r5, r5, #1
 780 01d8 1436     		adds	r6, r6, #20
 781 01da 062C     		cmp	r4, #6
 782 01dc 22D0     		beq	.L59
 783              	.LVL55:
 784              	.L31:
 118:main.cpp      ****             
 785              		.loc 11 118 13 view .LVU223
 118:main.cpp      ****             
 786              		.loc 11 118 32 is_stmt 0 view .LVU224
 787 01de E1B2     		uxtb	r1, r4
 788 01e0 1C48     		ldr	r0, .L61+8
 789 01e2 FFF7FEFF 		bl	_ZNK5daisy9AdcHandle3GetEh
 790              	.LVL56:
 791 01e6 08EE100A 		vmov	s16, r0	@ int
 120:main.cpp      **** 
 792              		.loc 11 120 28 view .LVU225
 793 01ea 3220     		movs	r0, #50
 118:main.cpp      ****             
 794              		.loc 11 118 20 view .LVU226
 795 01ec B8EE488A 		vcvt.f32.u32	s16, s16
 120:main.cpp      **** 
 796              		.loc 11 120 13 is_stmt 1 view .LVU227
 120:main.cpp      **** 
 797              		.loc 11 120 28 is_stmt 0 view .LVU228
 798 01f0 FFF7FEFF 		bl	_ZN5daisy6System7DelayUsEm
 799              	.LVL57:
 123:main.cpp      ****                 
 800              		.loc 11 123 13 is_stmt 1 view .LVU229
 135:main.cpp      ****                 
 801              		.loc 11 135 18 view .LVU230
 123:main.cpp      ****                 
 802              		.loc 11 123 38 is_stmt 0 view .LVU231
 803 01f4 F7EC017A 		vldmia.32	r7!, {s15}
 135:main.cpp      ****                 
 804              		.loc 11 135 46 view .LVU232
 805 01f8 B2EE0E7A 		vmov.f32	s14, #1.5e+1
 123:main.cpp      ****                 
 806              		.loc 11 123 13 view .LVU233
 807 01fc B4EEE78A 		vcmpe.f32	s16, s15
 808 0200 F1EE10FA 		vmrs	APSR_nzcv, FPSCR
 809 0204 D8DC     		bgt	.L60
 135:main.cpp      ****                 
 810              		.loc 11 135 46 view .LVU234
 811 0206 77EEC77A 		vsub.f32	s15, s15, s14
 135:main.cpp      ****                 
 812              		.loc 11 135 18 view .LVU235
 813 020a B4EEE78A 		vcmpe.f32	s16, s15
 814 020e F1EE10FA 		vmrs	APSR_nzcv, FPSCR
ARM GAS  C:\Users\skipi\AppData\Local\Temp\ccS8HZje.s 			page 38


 815 0212 DFD5     		bpl	.L29
 135:main.cpp      ****                 
 816              		.loc 11 135 52 discriminator 1 view .LVU236
 817 0214 2B78     		ldrb	r3, [r5]	@ zero_extendqisi2
 818 0216 002B     		cmp	r3, #0
 819 0218 DAD1     		bne	.L33
 117:main.cpp      ****             ldr[i] = hw.adc.Get(i);
 820              		.loc 11 117 9 is_stmt 1 view .LVU237
 821 021a 0134     		adds	r4, r4, #1
 822              	.LVL58:
 117:main.cpp      ****             ldr[i] = hw.adc.Get(i);
 823              		.loc 11 117 27 view .LVU238
 824 021c 0135     		adds	r5, r5, #1
 825 021e 1436     		adds	r6, r6, #20
 826 0220 062C     		cmp	r4, #6
 827 0222 DCD1     		bne	.L31
 828              	.L59:
 117:main.cpp      ****             ldr[i] = hw.adc.Get(i);
 829              		.loc 11 117 27 is_stmt 0 view .LVU239
 830              	.LBE344:
 138:main.cpp      ****                 
 139:main.cpp      ****             }
 140:main.cpp      ****         }
 141:main.cpp      ****         
 142:main.cpp      ****         // Un delay minimo per non saturare la CPU, ma mantenere reattività
 143:main.cpp      ****         hw.DelayMs(10); 
 831              		.loc 11 143 9 is_stmt 1 view .LVU240
 832              		.loc 11 143 19 is_stmt 0 view .LVU241
 833 0224 0A21     		movs	r1, #10
 834 0226 0948     		ldr	r0, .L61
 835 0228 FFF7FEFF 		bl	_ZN5daisy9DaisySeed7DelayMsEj
 836              	.LVL59:
 837              	.LBE347:
 115:main.cpp      ****     {
 838              		.loc 11 115 5 is_stmt 1 view .LVU242
 144:main.cpp      ****     }
 839              		.loc 11 144 5 is_stmt 0 view .LVU243
 840 022c BFE7     		b	.L32
 841              	.L58:
 842              	.LBB348:
 843              	.LBB345:
 125:main.cpp      ****                 
 844              		.loc 11 125 17 is_stmt 1 view .LVU244
 125:main.cpp      ****                 
 845              		.loc 11 125 31 is_stmt 0 view .LVU245
 846 022e 0121     		movs	r1, #1
 127:main.cpp      ****                 //midi.SendNoteOn(0, V0 + i, 100);
 847              		.loc 11 127 30 view .LVU246
 848 0230 3046     		mov	r0, r6
 125:main.cpp      ****                 
 849              		.loc 11 125 31 view .LVU247
 850 0232 2970     		strb	r1, [r5]
 127:main.cpp      ****                 //midi.SendNoteOn(0, V0 + i, 100);
 851              		.loc 11 127 17 is_stmt 1 view .LVU248
 127:main.cpp      ****                 //midi.SendNoteOn(0, V0 + i, 100);
 852              		.loc 11 127 30 is_stmt 0 view .LVU249
 853 0234 FFF7FEFF 		bl	_ZN5daisy4GPIO5WriteEb
ARM GAS  C:\Users\skipi\AppData\Local\Temp\ccS8HZje.s 			page 39


 854              	.LVL60:
 130:main.cpp      ****                 
 855              		.loc 11 130 17 is_stmt 1 view .LVU250
 130:main.cpp      ****                 
 856              		.loc 11 130 27 is_stmt 0 view .LVU251
 857 0238 6421     		movs	r1, #100
 858 023a 0448     		ldr	r0, .L61
 859 023c FFF7FEFF 		bl	_ZN5daisy9DaisySeed7DelayMsEj
 860              	.LVL61:
 133:main.cpp      ****             }
 861              		.loc 11 133 17 is_stmt 1 view .LVU252
 133:main.cpp      ****             }
 862              		.loc 11 133 30 is_stmt 0 view .LVU253
 863 0240 4146     		mov	r1, r8
 864 0242 3046     		mov	r0, r6
 865 0244 FFF7FEFF 		bl	_ZN5daisy4GPIO5WriteEb
 866              	.LVL62:
 867 0248 C4E7     		b	.L29
 868              	.L62:
 869 024a 00BF     		.align	2
 870              	.L61:
 871 024c 00000000 		.word	.LANCHOR1
 872 0250 00000000 		.word	.LANCHOR3
 873 0254 18000000 		.word	.LANCHOR1+24
 874 0258 00FF7F47 		.word	1199570688
 875 025c 00001643 		.word	1125515264
 876 0260 34000000 		.word	.LC3
 877 0264 0000FA43 		.word	1140457472
 878 0268 10000000 		.word	.LC1
 879 026c 00000000 		.word	.LANCHOR4
 880 0270 24000000 		.word	.LC2
 881 0274 00000000 		.word	.LC0
 882 0278 5C000000 		.word	.LC4
 883              	.LBE345:
 884              	.LBE348:
 885              		.cfi_endproc
 886              	.LFE4907:
 888              		.section	.text.startup._GLOBAL__sub_I_hw,"ax",%progbits
 889              		.align	1
 890              		.p2align 2,,3
 891              		.syntax unified
 892              		.thumb
 893              		.thumb_func
 894              		.fpu fpv5-d16
 896              	_GLOBAL__sub_I_hw:
 897              	.LFB5499:
 145:main.cpp      **** }...
 898              		.loc 11 145 1 is_stmt 1 view -0
 899              		.cfi_startproc
 900              		@ args = 0, pretend = 0, frame = 0
 901              		@ frame_needed = 0, uses_anonymous_args = 0
 902              	.LBB467:
 903              	.LBI467:
 904              		.loc 11 145 1 view .LVU255
 905              	.LVL63:
 906              	.LBB468:
 907              	.LBB469:
ARM GAS  C:\Users\skipi\AppData\Local\Temp\ccS8HZje.s 			page 40


 908              	.LBI469:
  21:../libDaisy/src/daisy_seed.h ****     ~DaisySeed() {}
 909              		.loc 1 21 5 view .LVU256
 910              	.LBB470:
 911              	.LBB471:
 912              	.LBI471:
 913              		.file 12 "../libDaisy/src/per/qspi.h"
   1:../libDaisy/src/per/qspi.h **** #ifndef DSY_QSPI
   2:../libDaisy/src/per/qspi.h **** #define DSY_QSPI /**< Macro */
   3:../libDaisy/src/per/qspi.h **** 
   4:../libDaisy/src/per/qspi.h **** #ifndef UNIT_TEST // for unit tests, a dummy implementation
   5:../libDaisy/src/per/qspi.h **** 
   6:../libDaisy/src/per/qspi.h **** #include <cstdint>
   7:../libDaisy/src/per/qspi.h **** #include "daisy_core.h"
   8:../libDaisy/src/per/qspi.h **** #include "util/hal_map.h"
   9:../libDaisy/src/per/qspi.h **** 
  10:../libDaisy/src/per/qspi.h **** #define DSY_QSPI_TEXT       \
  11:../libDaisy/src/per/qspi.h ****     __attribute__((section( \
  12:../libDaisy/src/per/qspi.h ****         ".qspiflash_text"))) /**< used for reading memory in memory_mapped mode. */
  13:../libDaisy/src/per/qspi.h **** #define DSY_QSPI_DATA       \
  14:../libDaisy/src/per/qspi.h ****     __attribute__((section( \
  15:../libDaisy/src/per/qspi.h ****         ".qspiflash_data"))) /**< used for reading memory in memory_mapped mode. */
  16:../libDaisy/src/per/qspi.h **** #define DSY_QSPI_BSS        \
  17:../libDaisy/src/per/qspi.h ****     __attribute__((section( \
  18:../libDaisy/src/per/qspi.h ****         ".qspiflash_bss"))) /**< used for reading memory in memory_mapped mode. */
  19:../libDaisy/src/per/qspi.h **** 
  20:../libDaisy/src/per/qspi.h **** namespace daisy
  21:../libDaisy/src/per/qspi.h **** {
  22:../libDaisy/src/per/qspi.h **** /** @addtogroup serial
  23:../libDaisy/src/per/qspi.h **** @{
  24:../libDaisy/src/per/qspi.h **** */
  25:../libDaisy/src/per/qspi.h **** 
  26:../libDaisy/src/per/qspi.h **** /**
  27:../libDaisy/src/per/qspi.h ****  Driver for QSPI peripheral to interface with external flash memory. \n
  28:../libDaisy/src/per/qspi.h ****     Currently supported QSPI Devices: \n
  29:../libDaisy/src/per/qspi.h ****     * IS25LP080D
  30:../libDaisy/src/per/qspi.h **** */
  31:../libDaisy/src/per/qspi.h **** class QSPIHandle
  32:../libDaisy/src/per/qspi.h **** {
  33:../libDaisy/src/per/qspi.h ****   public:
  34:../libDaisy/src/per/qspi.h ****     enum Result
  35:../libDaisy/src/per/qspi.h ****     {
  36:../libDaisy/src/per/qspi.h ****         OK = 0,
  37:../libDaisy/src/per/qspi.h ****         ERR
  38:../libDaisy/src/per/qspi.h ****     };
  39:../libDaisy/src/per/qspi.h **** 
  40:../libDaisy/src/per/qspi.h ****     /** Indicates the current status of the module.
  41:../libDaisy/src/per/qspi.h ****          *  Warnings are indicated by a leading W.
  42:../libDaisy/src/per/qspi.h ****          *  Errors are indicated by a leading E and cause an immediate exit.
  43:../libDaisy/src/per/qspi.h ****          *
  44:../libDaisy/src/per/qspi.h ****          *  \param GOOD - No errors have been reported.
  45:../libDaisy/src/per/qspi.h ****          *  \param E_HAL_ERROR - HAL code did not return HAL_OK.
  46:../libDaisy/src/per/qspi.h ****          *  \param E_SWITCHING_MODES - An error was encountered while switching QSPI peripheral mod
  47:../libDaisy/src/per/qspi.h ****          *  \param E_INVALID_MODE - QSPI should not be written to while the program is executing fr
  48:../libDaisy/src/per/qspi.h ****          */
  49:../libDaisy/src/per/qspi.h ****     enum Status
  50:../libDaisy/src/per/qspi.h ****     {
ARM GAS  C:\Users\skipi\AppData\Local\Temp\ccS8HZje.s 			page 41


  51:../libDaisy/src/per/qspi.h ****         GOOD = 0,
  52:../libDaisy/src/per/qspi.h ****         E_HAL_ERROR,
  53:../libDaisy/src/per/qspi.h ****         E_SWITCHING_MODES,
  54:../libDaisy/src/per/qspi.h ****         E_INVALID_MODE,
  55:../libDaisy/src/per/qspi.h ****     };
  56:../libDaisy/src/per/qspi.h **** 
  57:../libDaisy/src/per/qspi.h ****     /** Configuration structure for interfacing with QSPI Driver */
  58:../libDaisy/src/per/qspi.h ****     struct Config
  59:../libDaisy/src/per/qspi.h ****     {
  60:../libDaisy/src/per/qspi.h ****         /** Flash Devices supported. (Both of these are more-or-less the same, just different sizes
  61:../libDaisy/src/per/qspi.h ****         enum Device
  62:../libDaisy/src/per/qspi.h ****         {
  63:../libDaisy/src/per/qspi.h ****             IS25LP080D,  /**< & */
  64:../libDaisy/src/per/qspi.h ****             IS25LP064A,  /**< & */
  65:../libDaisy/src/per/qspi.h ****             DEVICE_LAST, /**< & */
  66:../libDaisy/src/per/qspi.h ****         };
  67:../libDaisy/src/per/qspi.h **** 
  68:../libDaisy/src/per/qspi.h ****         /**
  69:../libDaisy/src/per/qspi.h ****         Modes of operation.
  70:../libDaisy/src/per/qspi.h ****         Memory Mapped mode: QSPI configured so that the QSPI can be
  71:../libDaisy/src/per/qspi.h ****         read from starting address 0x90000000. Writing is not
  72:../libDaisy/src/per/qspi.h ****         possible in this mode. \n
  73:../libDaisy/src/per/qspi.h ****         Indirect Polling mode: Device driver enabled.
  74:../libDaisy/src/per/qspi.h ****         */
  75:../libDaisy/src/per/qspi.h ****         enum Mode
  76:../libDaisy/src/per/qspi.h ****         {
  77:../libDaisy/src/per/qspi.h ****             MEMORY_MAPPED,    /**< & */
  78:../libDaisy/src/per/qspi.h ****             INDIRECT_POLLING, /**< & */
  79:../libDaisy/src/per/qspi.h ****             MODE_LAST,
  80:../libDaisy/src/per/qspi.h ****         };
  81:../libDaisy/src/per/qspi.h **** 
  82:../libDaisy/src/per/qspi.h ****         //SCK,  CE# (active low)
  83:../libDaisy/src/per/qspi.h ****         struct
  84:../libDaisy/src/per/qspi.h ****         {
  85:../libDaisy/src/per/qspi.h ****             Pin io0; /**< & */
  86:../libDaisy/src/per/qspi.h ****             Pin io1; /**< & */
  87:../libDaisy/src/per/qspi.h ****             Pin io2; /**< & */
  88:../libDaisy/src/per/qspi.h ****             Pin io3; /**< & */
  89:../libDaisy/src/per/qspi.h ****             Pin clk; /**< & */
  90:../libDaisy/src/per/qspi.h ****             Pin ncs; /**< & */
  91:../libDaisy/src/per/qspi.h ****         } pin_config;
  92:../libDaisy/src/per/qspi.h **** 
  93:../libDaisy/src/per/qspi.h ****         Device device;
  94:../libDaisy/src/per/qspi.h ****         Mode   mode;
  95:../libDaisy/src/per/qspi.h ****     };
  96:../libDaisy/src/per/qspi.h **** 
  97:../libDaisy/src/per/qspi.h ****     /**
  98:../libDaisy/src/per/qspi.h ****         Initializes QSPI peripheral, and Resets, and prepares memory for access.
  99:../libDaisy/src/per/qspi.h ****         \param config should be populated with the mode, device and pin_config before calling this 
 100:../libDaisy/src/per/qspi.h ****         \return Result::OK or Result::ERR
 101:../libDaisy/src/per/qspi.h ****         */
 102:../libDaisy/src/per/qspi.h ****     Result Init(const Config& config);
 103:../libDaisy/src/per/qspi.h **** 
 104:../libDaisy/src/per/qspi.h ****     /** Returns the current config. */
 105:../libDaisy/src/per/qspi.h ****     const Config& GetConfig() const;
 106:../libDaisy/src/per/qspi.h **** 
 107:../libDaisy/src/per/qspi.h ****     // Couldn't this just be called before anything else in init? That
ARM GAS  C:\Users\skipi\AppData\Local\Temp\ccS8HZje.s 			page 42


 108:../libDaisy/src/per/qspi.h ****     // would make manually calling it unnecessary.
 109:../libDaisy/src/per/qspi.h ****     /**
 110:../libDaisy/src/per/qspi.h ****         Deinitializes the peripheral
 111:../libDaisy/src/per/qspi.h ****         This should be called before reinitializing QSPI in a different mode.
 112:../libDaisy/src/per/qspi.h ****         \return Result::OK or Result::ERR
 113:../libDaisy/src/per/qspi.h ****         */
 114:../libDaisy/src/per/qspi.h ****     Result DeInit();
 115:../libDaisy/src/per/qspi.h **** 
 116:../libDaisy/src/per/qspi.h ****     /**
 117:../libDaisy/src/per/qspi.h ****         Writes a single page to to the specified address on the QSPI chip.
 118:../libDaisy/src/per/qspi.h ****         For IS25LP*, page size is 256 bytes.
 119:../libDaisy/src/per/qspi.h ****         \param address Address to write to
 120:../libDaisy/src/per/qspi.h ****         \param size Buffer size
 121:../libDaisy/src/per/qspi.h ****         \param buffer Buffer to write
 122:../libDaisy/src/per/qspi.h ****         \return Result::OK or Result::ERR
 123:../libDaisy/src/per/qspi.h ****         */
 124:../libDaisy/src/per/qspi.h ****     Result WritePage(uint32_t address, uint32_t size, uint8_t* buffer);
 125:../libDaisy/src/per/qspi.h **** 
 126:../libDaisy/src/per/qspi.h ****     /**
 127:../libDaisy/src/per/qspi.h ****         Writes data in buffer to to the QSPI. Starting at address to address+size
 128:../libDaisy/src/per/qspi.h ****         \param address Address to write to
 129:../libDaisy/src/per/qspi.h ****         \param size Buffer size
 130:../libDaisy/src/per/qspi.h ****         \param buffer Buffer to write
 131:../libDaisy/src/per/qspi.h ****         \return Result::OK or Result::ERR
 132:../libDaisy/src/per/qspi.h ****         */
 133:../libDaisy/src/per/qspi.h ****     Result Write(uint32_t address, uint32_t size, uint8_t* buffer);
 134:../libDaisy/src/per/qspi.h **** 
 135:../libDaisy/src/per/qspi.h ****     /**
 136:../libDaisy/src/per/qspi.h ****         Erases the area specified on the chip.
 137:../libDaisy/src/per/qspi.h ****         Erasures will happen by 4K, 32K or 64K increments.
 138:../libDaisy/src/per/qspi.h ****         Smallest erase possible is 4kB at a time. (on IS25LP*)
 139:../libDaisy/src/per/qspi.h ****         \param start_addr Address to begin erasing from
 140:../libDaisy/src/per/qspi.h ****         \param end_addr  Address to stop erasing at
 141:../libDaisy/src/per/qspi.h ****         \return Result::OK or Result::ERR
 142:../libDaisy/src/per/qspi.h ****         */
 143:../libDaisy/src/per/qspi.h ****     Result Erase(uint32_t start_addr, uint32_t end_addr);
 144:../libDaisy/src/per/qspi.h **** 
 145:../libDaisy/src/per/qspi.h ****     /**
 146:../libDaisy/src/per/qspi.h ****          Erases a single sector of the chip.
 147:../libDaisy/src/per/qspi.h ****         TODO: Document the size of this function.
 148:../libDaisy/src/per/qspi.h ****         \param address Address of sector to erase
 149:../libDaisy/src/per/qspi.h ****         \return Result::OK or Result::ERR
 150:../libDaisy/src/per/qspi.h ****         */
 151:../libDaisy/src/per/qspi.h ****     Result EraseSector(uint32_t address);
 152:../libDaisy/src/per/qspi.h **** 
 153:../libDaisy/src/per/qspi.h ****     /** Returns the current class status. Useful for debugging.
 154:../libDaisy/src/per/qspi.h ****      *  \returns Status
 155:../libDaisy/src/per/qspi.h ****      */
 156:../libDaisy/src/per/qspi.h ****     Status GetStatus();
 157:../libDaisy/src/per/qspi.h **** 
 158:../libDaisy/src/per/qspi.h ****     /** Returns a pointer to the actual memory used
 159:../libDaisy/src/per/qspi.h ****      *  The memory at this address is read-only
 160:../libDaisy/src/per/qspi.h ****      *  to write to it use the Write function.
 161:../libDaisy/src/per/qspi.h ****      *
 162:../libDaisy/src/per/qspi.h ****      *  \param offset returns the pointer starting this
 163:../libDaisy/src/per/qspi.h ****      *                many bytes into the memory
 164:../libDaisy/src/per/qspi.h ****     */
ARM GAS  C:\Users\skipi\AppData\Local\Temp\ccS8HZje.s 			page 43


 165:../libDaisy/src/per/qspi.h ****     void* GetData(uint32_t offset = 0);
 166:../libDaisy/src/per/qspi.h **** 
 167:../libDaisy/src/per/qspi.h ****     QSPIHandle() : pimpl_(nullptr) {}
 914              		.loc 12 167 5 view .LVU257
 915              		.loc 12 167 5 is_stmt 0 view .LVU258
 916              	.LBE471:
 917              	.LBB474:
 918              	.LBI474:
  58:../libDaisy/src/per/qspi.h ****     {
 919              		.loc 12 58 12 is_stmt 1 view .LVU259
 920              	.LBB475:
 921              	.LBI475:
  84:../libDaisy/src/per/qspi.h ****             Pin io0; /**< & */
 922              		.loc 12 84 9 view .LVU260
 923              	.LBB476:
 924              	.LBI476:
 925              		.file 13 "../libDaisy/src/daisy_core.h"
   1:../libDaisy/src/daisy_core.h **** #pragma once
   2:../libDaisy/src/daisy_core.h **** #ifndef DSY_CORE_HW_H
   3:../libDaisy/src/daisy_core.h **** #define DSY_CORE_HW_H /**< & */
   4:../libDaisy/src/daisy_core.h **** #include <stdint.h>
   5:../libDaisy/src/daisy_core.h **** #include <stdlib.h>
   6:../libDaisy/src/daisy_core.h **** 
   7:../libDaisy/src/daisy_core.h **** #if defined(_MSC_VER)
   8:../libDaisy/src/daisy_core.h **** #define FORCE_INLINE __forceinline /**< & */
   9:../libDaisy/src/daisy_core.h **** #elif defined(__clang__)
  10:../libDaisy/src/daisy_core.h **** #define FORCE_INLINE inline __attribute__((always_inline)) /**< & */
  11:../libDaisy/src/daisy_core.h **** #pragma clang diagnostic ignored "-Wduplicate-decl-specifier"
  12:../libDaisy/src/daisy_core.h **** #elif defined(__GNUC__)
  13:../libDaisy/src/daisy_core.h **** #define FORCE_INLINE inline __attribute__((always_inline)) /**< & */
  14:../libDaisy/src/daisy_core.h **** #else
  15:../libDaisy/src/daisy_core.h **** #error unknown compiler
  16:../libDaisy/src/daisy_core.h **** #endif
  17:../libDaisy/src/daisy_core.h **** 
  18:../libDaisy/src/daisy_core.h **** /** @addtogroup utility
  19:../libDaisy/src/daisy_core.h ****     @{
  20:../libDaisy/src/daisy_core.h **** */
  21:../libDaisy/src/daisy_core.h **** 
  22:../libDaisy/src/daisy_core.h **** /** Macro for area of memory that is configured as cacheless
  23:../libDaisy/src/daisy_core.h **** This should be used primarily for DMA buffers, and the like.
  24:../libDaisy/src/daisy_core.h **** */
  25:../libDaisy/src/daisy_core.h **** #define DMA_BUFFER_MEM_SECTION __attribute__((section(".sram1_bss")))
  26:../libDaisy/src/daisy_core.h **** /** 
  27:../libDaisy/src/daisy_core.h **** THE DTCM RAM section is also non-cached. However, is not suitable 
  28:../libDaisy/src/daisy_core.h **** for DMA transfers. Performance is on par with internal SRAM w/ 
  29:../libDaisy/src/daisy_core.h **** cache enabled.
  30:../libDaisy/src/daisy_core.h **** */
  31:../libDaisy/src/daisy_core.h **** #define DTCM_MEM_SECTION __attribute__((section(".dtcmram_bss")))
  32:../libDaisy/src/daisy_core.h **** 
  33:../libDaisy/src/daisy_core.h **** #define FBIPMAX 0.999985f             /**< close to 1.0f-LSB at 16 bit */
  34:../libDaisy/src/daisy_core.h **** #define FBIPMIN (-FBIPMAX)            /**< - (1 - LSB) */
  35:../libDaisy/src/daisy_core.h **** #define U82F_SCALE 0.0078740f         /**< 1 / 127 */
  36:../libDaisy/src/daisy_core.h **** #define F2U8_SCALE 127.0f             /**< 128 - 1 */
  37:../libDaisy/src/daisy_core.h **** #define S82F_SCALE 0.0078125f         /**< 1 / (2**7) */
  38:../libDaisy/src/daisy_core.h **** #define F2S8_SCALE 127.0f             /**< (2 ** 7) - 1 */
  39:../libDaisy/src/daisy_core.h **** #define S162F_SCALE 3.0517578125e-05f /**< 1 / (2** 15) */
  40:../libDaisy/src/daisy_core.h **** #define F2S16_SCALE 32767.0f          /**< (2 ** 15) - 1 */
ARM GAS  C:\Users\skipi\AppData\Local\Temp\ccS8HZje.s 			page 44


  41:../libDaisy/src/daisy_core.h **** #define F2S24_SCALE 8388608.0f        /**< 2 ** 23 */
  42:../libDaisy/src/daisy_core.h **** #define S242F_SCALE 1.192092896e-07f  /**< 1 / (2 ** 23) */
  43:../libDaisy/src/daisy_core.h **** #define S24SIGN 0x800000              /**< 2 ** 23 */
  44:../libDaisy/src/daisy_core.h **** #define S322F_SCALE 4.6566129e-10f    /**< 1 / (2** 31) */
  45:../libDaisy/src/daisy_core.h **** #define F2S32_SCALE 2147483647.f      /**< (2 ** 31) - 1 */
  46:../libDaisy/src/daisy_core.h **** 
  47:../libDaisy/src/daisy_core.h **** 
  48:../libDaisy/src/daisy_core.h **** /** shorthand macro for simplifying the reading of the left 
  49:../libDaisy/src/daisy_core.h ****  *  channel of a non-interleaved output buffer named out */
  50:../libDaisy/src/daisy_core.h **** #define OUT_L out[0]
  51:../libDaisy/src/daisy_core.h **** 
  52:../libDaisy/src/daisy_core.h **** /** shorthand macro for simplifying the reading of the right 
  53:../libDaisy/src/daisy_core.h ****  *  channel of a non-interleaved output buffer named out */
  54:../libDaisy/src/daisy_core.h **** #define OUT_R out[1]
  55:../libDaisy/src/daisy_core.h **** 
  56:../libDaisy/src/daisy_core.h **** /** shorthand macro for simplifying the reading of the left 
  57:../libDaisy/src/daisy_core.h ****  *  channel of a non-interleaved input buffer named in */
  58:../libDaisy/src/daisy_core.h **** #define IN_L in[0]
  59:../libDaisy/src/daisy_core.h **** 
  60:../libDaisy/src/daisy_core.h **** /** shorthand macro for simplifying the reading of the right 
  61:../libDaisy/src/daisy_core.h ****  *  channel of a non-interleaved input buffer named in */
  62:../libDaisy/src/daisy_core.h **** #define IN_R in[1]
  63:../libDaisy/src/daisy_core.h **** 
  64:../libDaisy/src/daisy_core.h **** /** 
  65:../libDaisy/src/daisy_core.h ****     Computes cube.
  66:../libDaisy/src/daisy_core.h ****     \param x Number to be cubed
  67:../libDaisy/src/daisy_core.h ****     \return x ^ 3
  68:../libDaisy/src/daisy_core.h **** */
  69:../libDaisy/src/daisy_core.h **** FORCE_INLINE float cube(float x)
  70:../libDaisy/src/daisy_core.h **** {
  71:../libDaisy/src/daisy_core.h ****     return (x * x) * x;
  72:../libDaisy/src/daisy_core.h **** }
  73:../libDaisy/src/daisy_core.h **** 
  74:../libDaisy/src/daisy_core.h **** /** 
  75:../libDaisy/src/daisy_core.h ****     Converts unsigned 8-bit to float
  76:../libDaisy/src/daisy_core.h ****     \param x Number to be scaled.
  77:../libDaisy/src/daisy_core.h ****     \return Scaled number.
  78:../libDaisy/src/daisy_core.h **** */
  79:../libDaisy/src/daisy_core.h **** FORCE_INLINE float u82f(uint8_t x)
  80:../libDaisy/src/daisy_core.h **** {
  81:../libDaisy/src/daisy_core.h ****     return ((float)x - 127.f) * U82F_SCALE;
  82:../libDaisy/src/daisy_core.h **** }
  83:../libDaisy/src/daisy_core.h **** 
  84:../libDaisy/src/daisy_core.h **** /**
  85:../libDaisy/src/daisy_core.h ****     Converts float to unsigned 8-bit
  86:../libDaisy/src/daisy_core.h **** */
  87:../libDaisy/src/daisy_core.h **** FORCE_INLINE uint8_t f2u8(float x)
  88:../libDaisy/src/daisy_core.h **** {
  89:../libDaisy/src/daisy_core.h ****     x = x <= FBIPMIN ? FBIPMIN : x;
  90:../libDaisy/src/daisy_core.h ****     x = x >= FBIPMAX ? FBIPMAX : x;
  91:../libDaisy/src/daisy_core.h ****     return (uint8_t)((x * F2U8_SCALE) + F2U8_SCALE);
  92:../libDaisy/src/daisy_core.h **** }
  93:../libDaisy/src/daisy_core.h **** 
  94:../libDaisy/src/daisy_core.h **** 
  95:../libDaisy/src/daisy_core.h **** /** 
  96:../libDaisy/src/daisy_core.h ****     Converts Signed 8-bit to float
  97:../libDaisy/src/daisy_core.h ****     \param x Number to be scaled.
ARM GAS  C:\Users\skipi\AppData\Local\Temp\ccS8HZje.s 			page 45


  98:../libDaisy/src/daisy_core.h ****     \return Scaled number.
  99:../libDaisy/src/daisy_core.h **** */
 100:../libDaisy/src/daisy_core.h **** FORCE_INLINE float s82f(int8_t x)
 101:../libDaisy/src/daisy_core.h **** {
 102:../libDaisy/src/daisy_core.h ****     return (float)x * S82F_SCALE;
 103:../libDaisy/src/daisy_core.h **** }
 104:../libDaisy/src/daisy_core.h **** 
 105:../libDaisy/src/daisy_core.h **** /**
 106:../libDaisy/src/daisy_core.h ****     Converts float to Signed 8-bit
 107:../libDaisy/src/daisy_core.h **** */
 108:../libDaisy/src/daisy_core.h **** FORCE_INLINE int8_t f2s8(float x)
 109:../libDaisy/src/daisy_core.h **** {
 110:../libDaisy/src/daisy_core.h ****     x = x <= FBIPMIN ? FBIPMIN : x;
 111:../libDaisy/src/daisy_core.h ****     x = x >= FBIPMAX ? FBIPMAX : x;
 112:../libDaisy/src/daisy_core.h ****     return (int32_t)(x * F2S8_SCALE);
 113:../libDaisy/src/daisy_core.h **** }
 114:../libDaisy/src/daisy_core.h **** 
 115:../libDaisy/src/daisy_core.h **** /** 
 116:../libDaisy/src/daisy_core.h ****     Converts Signed 16-bit to float
 117:../libDaisy/src/daisy_core.h ****     \param x Number to be scaled.
 118:../libDaisy/src/daisy_core.h ****     \return Scaled number.
 119:../libDaisy/src/daisy_core.h **** */
 120:../libDaisy/src/daisy_core.h **** FORCE_INLINE float s162f(int16_t x)
 121:../libDaisy/src/daisy_core.h **** {
 122:../libDaisy/src/daisy_core.h ****     return (float)x * S162F_SCALE;
 123:../libDaisy/src/daisy_core.h **** }
 124:../libDaisy/src/daisy_core.h **** 
 125:../libDaisy/src/daisy_core.h **** /**
 126:../libDaisy/src/daisy_core.h ****     Converts float to Signed 16-bit
 127:../libDaisy/src/daisy_core.h **** */
 128:../libDaisy/src/daisy_core.h **** FORCE_INLINE int16_t f2s16(float x)
 129:../libDaisy/src/daisy_core.h **** {
 130:../libDaisy/src/daisy_core.h ****     x = x <= FBIPMIN ? FBIPMIN : x;
 131:../libDaisy/src/daisy_core.h ****     x = x >= FBIPMAX ? FBIPMAX : x;
 132:../libDaisy/src/daisy_core.h ****     return (int32_t)(x * F2S16_SCALE);
 133:../libDaisy/src/daisy_core.h **** }
 134:../libDaisy/src/daisy_core.h **** 
 135:../libDaisy/src/daisy_core.h **** /**
 136:../libDaisy/src/daisy_core.h ****     Converts Signed 24-bit to float
 137:../libDaisy/src/daisy_core.h ****  */
 138:../libDaisy/src/daisy_core.h **** FORCE_INLINE float s242f(int32_t x)
 139:../libDaisy/src/daisy_core.h **** {
 140:../libDaisy/src/daisy_core.h ****     x = (x ^ S24SIGN) - S24SIGN; //sign extend aka ((x<<8)>>8)
 141:../libDaisy/src/daisy_core.h ****     return (float)x * S242F_SCALE;
 142:../libDaisy/src/daisy_core.h **** }
 143:../libDaisy/src/daisy_core.h **** /**
 144:../libDaisy/src/daisy_core.h ****     Converts float to Signed 24-bit
 145:../libDaisy/src/daisy_core.h ****  */
 146:../libDaisy/src/daisy_core.h **** FORCE_INLINE int32_t f2s24(float x)
 147:../libDaisy/src/daisy_core.h **** {
 148:../libDaisy/src/daisy_core.h ****     x = x <= FBIPMIN ? FBIPMIN : x;
 149:../libDaisy/src/daisy_core.h ****     x = x >= FBIPMAX ? FBIPMAX : x;
 150:../libDaisy/src/daisy_core.h ****     return (int32_t)(x * F2S24_SCALE);
 151:../libDaisy/src/daisy_core.h **** }
 152:../libDaisy/src/daisy_core.h **** 
 153:../libDaisy/src/daisy_core.h **** /**
 154:../libDaisy/src/daisy_core.h ****     Converts Signed 32-bit to float
ARM GAS  C:\Users\skipi\AppData\Local\Temp\ccS8HZje.s 			page 46


 155:../libDaisy/src/daisy_core.h ****  */
 156:../libDaisy/src/daisy_core.h **** FORCE_INLINE float s322f(int32_t x)
 157:../libDaisy/src/daisy_core.h **** {
 158:../libDaisy/src/daisy_core.h ****     return (float)x * S322F_SCALE;
 159:../libDaisy/src/daisy_core.h **** }
 160:../libDaisy/src/daisy_core.h **** /**
 161:../libDaisy/src/daisy_core.h ****     Converts float to Signed 24-bit
 162:../libDaisy/src/daisy_core.h ****  */
 163:../libDaisy/src/daisy_core.h **** FORCE_INLINE int32_t f2s32(float x)
 164:../libDaisy/src/daisy_core.h **** {
 165:../libDaisy/src/daisy_core.h ****     x = x <= FBIPMIN ? FBIPMIN : x;
 166:../libDaisy/src/daisy_core.h ****     x = x >= FBIPMAX ? FBIPMAX : x;
 167:../libDaisy/src/daisy_core.h ****     return (int32_t)(x * F2S32_SCALE);
 168:../libDaisy/src/daisy_core.h **** }
 169:../libDaisy/src/daisy_core.h **** 
 170:../libDaisy/src/daisy_core.h **** #ifdef __cplusplus
 171:../libDaisy/src/daisy_core.h **** 
 172:../libDaisy/src/daisy_core.h **** namespace daisy
 173:../libDaisy/src/daisy_core.h **** {
 174:../libDaisy/src/daisy_core.h **** /** @brief GPIO Port names */
 175:../libDaisy/src/daisy_core.h **** enum GPIOPort
 176:../libDaisy/src/daisy_core.h **** {
 177:../libDaisy/src/daisy_core.h ****     PORTA, /**< Port A */
 178:../libDaisy/src/daisy_core.h ****     PORTB, /**< Port B */
 179:../libDaisy/src/daisy_core.h ****     PORTC, /**< Port C */
 180:../libDaisy/src/daisy_core.h ****     PORTD, /**< Port D */
 181:../libDaisy/src/daisy_core.h ****     PORTE, /**< Port E */
 182:../libDaisy/src/daisy_core.h ****     PORTF, /**< Port F */
 183:../libDaisy/src/daisy_core.h ****     PORTG, /**< Port G */
 184:../libDaisy/src/daisy_core.h ****     PORTH, /**< Port H */
 185:../libDaisy/src/daisy_core.h ****     PORTI, /**< Port I */
 186:../libDaisy/src/daisy_core.h ****     PORTJ, /**< Port J */
 187:../libDaisy/src/daisy_core.h ****     PORTK, /**< Port K */
 188:../libDaisy/src/daisy_core.h ****     PORTX, /**< Used as a dummy port to signal an invalid pin. */
 189:../libDaisy/src/daisy_core.h **** };
 190:../libDaisy/src/daisy_core.h **** 
 191:../libDaisy/src/daisy_core.h **** /** @brief representation of hardware port/pin combination */
 192:../libDaisy/src/daisy_core.h **** struct Pin
 193:../libDaisy/src/daisy_core.h **** {
 194:../libDaisy/src/daisy_core.h ****     GPIOPort port;
 195:../libDaisy/src/daisy_core.h ****     uint8_t  pin;
 196:../libDaisy/src/daisy_core.h **** 
 197:../libDaisy/src/daisy_core.h ****     /** @brief Constructor creates a valid pin. 
 198:../libDaisy/src/daisy_core.h ****      *  @param pt GPIOPort between PA, and PK corresponding to STM32 Port.
 199:../libDaisy/src/daisy_core.h ****      *  @param pn pin number in range of 0-15
 200:../libDaisy/src/daisy_core.h ****     */
 201:../libDaisy/src/daisy_core.h ****     constexpr Pin(const GPIOPort pt, const uint8_t pn) : port(pt), pin(pn) {}
 202:../libDaisy/src/daisy_core.h **** 
 203:../libDaisy/src/daisy_core.h ****     /** @brief Basic Constructor creates an invalid Pin object */
 204:../libDaisy/src/daisy_core.h ****     constexpr Pin() : port(PORTX), pin(255) {}
 926              		.loc 13 204 15 view .LVU261
 927              		.loc 13 204 15 is_stmt 0 view .LVU262
 928              	.LBE476:
 929              	.LBB477:
 930              	.LBI477:
 931              		.loc 13 204 15 is_stmt 1 view .LVU263
 932              		.loc 13 204 15 is_stmt 0 view .LVU264
ARM GAS  C:\Users\skipi\AppData\Local\Temp\ccS8HZje.s 			page 47


 933              	.LBE477:
 934              	.LBB478:
 935              	.LBI478:
 936              		.loc 13 204 15 is_stmt 1 view .LVU265
 937              		.loc 13 204 15 is_stmt 0 view .LVU266
 938              	.LBE478:
 939              	.LBB479:
 940              	.LBI479:
 941              		.loc 13 204 15 is_stmt 1 view .LVU267
 942              		.loc 13 204 15 is_stmt 0 view .LVU268
 943              	.LBE479:
 944              	.LBB480:
 945              	.LBI480:
 946              		.loc 13 204 15 is_stmt 1 view .LVU269
 947              		.loc 13 204 15 is_stmt 0 view .LVU270
 948              	.LBE480:
 949              	.LBB481:
 950              	.LBI481:
 951              		.loc 13 204 15 is_stmt 1 view .LVU271
 952              		.loc 13 204 15 is_stmt 0 view .LVU272
 953              	.LBE481:
 954              	.LBE475:
 955              	.LBE474:
 956              	.LBB482:
 957              	.LBI482:
  87:../libDaisy/src/hid/audio.h ****     ~AudioHandle() {}
 958              		.loc 6 87 5 is_stmt 1 view .LVU273
  87:../libDaisy/src/hid/audio.h ****     ~AudioHandle() {}
 959              		.loc 6 87 5 is_stmt 0 view .LVU274
 960              	.LBE482:
 961              	.LBB485:
 962              	.LBI485:
 109:../libDaisy/src/per/adc.h ****     ~AdcHandle() {}
 963              		.loc 5 109 5 is_stmt 1 view .LVU275
 109:../libDaisy/src/per/adc.h ****     ~AdcHandle() {}
 964              		.loc 5 109 5 is_stmt 0 view .LVU276
 965              	.LBE485:
 966              	.LBB486:
 967              	.LBI486:
 968              		.file 14 "../libDaisy/src/per/dac.h"
   1:../libDaisy/src/per/dac.h **** #pragma once
   2:../libDaisy/src/per/dac.h **** #ifndef DSY_DAC_H
   3:../libDaisy/src/per/dac.h **** #define DSY_DAC_H
   4:../libDaisy/src/per/dac.h **** #include "stm32h7xx_hal.h"
   5:../libDaisy/src/per/dac.h **** #include "daisy_core.h"
   6:../libDaisy/src/per/dac.h **** 
   7:../libDaisy/src/per/dac.h **** namespace daisy
   8:../libDaisy/src/per/dac.h **** {
   9:../libDaisy/src/per/dac.h **** /** @brief DAC handle for Built-in DAC Peripheral 
  10:../libDaisy/src/per/dac.h ****  *  @ingroup per_analog
  11:../libDaisy/src/per/dac.h ****  ** 
  12:../libDaisy/src/per/dac.h ****  ** For now only Normal Mode is supported,
  13:../libDaisy/src/per/dac.h ****  ** Sample and hold mode provides reduced power consumption, but requires a bit more setup.
  14:../libDaisy/src/per/dac.h ****  **
  15:../libDaisy/src/per/dac.h ****  ** For now connecting the DAC through other internal peripherals is also not supported.
  16:../libDaisy/src/per/dac.h ****  **
  17:../libDaisy/src/per/dac.h ****  ** Since the DAC channels have dedicated pins we don't need to pass in a pin config like with
ARM GAS  C:\Users\skipi\AppData\Local\Temp\ccS8HZje.s 			page 48


  18:../libDaisy/src/per/dac.h ****  ** other modules. However, it is still important to not try to use the DAC pins for anything else.
  19:../libDaisy/src/per/dac.h ****  ** DAC Channel 1 is on PA4, and DAC Channel 2 is on PA5
  20:../libDaisy/src/per/dac.h ****  ***/
  21:../libDaisy/src/per/dac.h **** class DacHandle
  22:../libDaisy/src/per/dac.h **** {
  23:../libDaisy/src/per/dac.h ****   public:
  24:../libDaisy/src/per/dac.h ****     /** Return Values for the DacHandle class */
  25:../libDaisy/src/per/dac.h ****     enum class Result
  26:../libDaisy/src/per/dac.h ****     {
  27:../libDaisy/src/per/dac.h ****         OK,
  28:../libDaisy/src/per/dac.h ****         ERR,
  29:../libDaisy/src/per/dac.h ****     };
  30:../libDaisy/src/per/dac.h **** 
  31:../libDaisy/src/per/dac.h ****     /** Selects which channel(s) will be configured for use. */
  32:../libDaisy/src/per/dac.h ****     enum class Channel
  33:../libDaisy/src/per/dac.h ****     {
  34:../libDaisy/src/per/dac.h ****         ONE,
  35:../libDaisy/src/per/dac.h ****         TWO,
  36:../libDaisy/src/per/dac.h ****         BOTH,
  37:../libDaisy/src/per/dac.h ****     };
  38:../libDaisy/src/per/dac.h **** 
  39:../libDaisy/src/per/dac.h ****     /** Sets the Mode for the DAC channels.
  40:../libDaisy/src/per/dac.h ****      **
  41:../libDaisy/src/per/dac.h ****      ** Polling mode uses the blocking mode to transmit a single value at a time.
  42:../libDaisy/src/per/dac.h ****      **
  43:../libDaisy/src/per/dac.h ****      ** DMA mode uses a buffer, and periodically transmits it triggering a 
  44:../libDaisy/src/per/dac.h ****      ** callback to fill the buffer when it is ready for more samples.
  45:../libDaisy/src/per/dac.h ****      ***/
  46:../libDaisy/src/per/dac.h ****     enum class Mode
  47:../libDaisy/src/per/dac.h ****     {
  48:../libDaisy/src/per/dac.h ****         POLLING,
  49:../libDaisy/src/per/dac.h ****         DMA,
  50:../libDaisy/src/per/dac.h ****     };
  51:../libDaisy/src/per/dac.h **** 
  52:../libDaisy/src/per/dac.h ****     /** Sets the number of bits per sample transmitted out of the DAC.
  53:../libDaisy/src/per/dac.h ****      ** The output range will be: 0V - VDDA
  54:../libDaisy/src/per/dac.h ****      ** The resolution will be roughly: bitdepth / (VDDA - 0V) 
  55:../libDaisy/src/per/dac.h ****      ***/
  56:../libDaisy/src/per/dac.h ****     enum class BitDepth
  57:../libDaisy/src/per/dac.h ****     {
  58:../libDaisy/src/per/dac.h ****         BITS_8,
  59:../libDaisy/src/per/dac.h ****         BITS_12
  60:../libDaisy/src/per/dac.h ****     };
  61:../libDaisy/src/per/dac.h **** 
  62:../libDaisy/src/per/dac.h ****     /** Sets whether the DAC output is buffered for higher drive ability. */
  63:../libDaisy/src/per/dac.h ****     enum class BufferState
  64:../libDaisy/src/per/dac.h ****     {
  65:../libDaisy/src/per/dac.h ****         ENABLED,
  66:../libDaisy/src/per/dac.h ****         DISABLED,
  67:../libDaisy/src/per/dac.h ****     };
  68:../libDaisy/src/per/dac.h **** 
  69:../libDaisy/src/per/dac.h ****     /** Configuration structure for initializing the DAC structure. */
  70:../libDaisy/src/per/dac.h ****     struct Config
  71:../libDaisy/src/per/dac.h ****     {
  72:../libDaisy/src/per/dac.h ****         /** Target Samplerate in Hz used to configure the internal 
  73:../libDaisy/src/per/dac.h ****          ** timebase for DMA mode. Does nothing in POLLING mode.
  74:../libDaisy/src/per/dac.h ****          ** If the value is 0 at Init time this will default to 48000Hz 
ARM GAS  C:\Users\skipi\AppData\Local\Temp\ccS8HZje.s 			page 49


  75:../libDaisy/src/per/dac.h ****          ** otherwise the driver will attempt meet the target.*/
  76:../libDaisy/src/per/dac.h ****         uint32_t target_samplerate;
  77:../libDaisy/src/per/dac.h **** 
  78:../libDaisy/src/per/dac.h ****         Channel     chn;
  79:../libDaisy/src/per/dac.h ****         Mode        mode;
  80:../libDaisy/src/per/dac.h ****         BitDepth    bitdepth;
  81:../libDaisy/src/per/dac.h ****         BufferState buff_state;
  82:../libDaisy/src/per/dac.h ****     };
  83:../libDaisy/src/per/dac.h **** 
  84:../libDaisy/src/per/dac.h ****     DacHandle() : pimpl_(nullptr) {}
 969              		.loc 14 84 5 is_stmt 1 view .LVU277
 970              		.loc 14 84 5 is_stmt 0 view .LVU278
 971              	.LBE486:
 972              	.LBB489:
 973              	.LBI489:
  40:../libDaisy/src/hid/usb.h **** 
 974              		.loc 4 40 5 is_stmt 1 view .LVU279
  40:../libDaisy/src/hid/usb.h **** 
 975              		.loc 4 40 5 is_stmt 0 view .LVU280
 976              	.LBE489:
 977              	.LBB490:
 978              	.LBI490:
 979              		.file 15 "../libDaisy/src/per/gpio.h"
   1:../libDaisy/src/per/gpio.h **** #pragma once
   2:../libDaisy/src/per/gpio.h **** #ifndef DSY_GPIO_H
   3:../libDaisy/src/per/gpio.h **** #define DSY_GPIO_H
   4:../libDaisy/src/per/gpio.h **** #include "daisy_core.h"
   5:../libDaisy/src/per/gpio.h **** 
   6:../libDaisy/src/per/gpio.h **** #ifdef __cplusplus
   7:../libDaisy/src/per/gpio.h **** 
   8:../libDaisy/src/per/gpio.h **** namespace daisy
   9:../libDaisy/src/per/gpio.h **** {
  10:../libDaisy/src/per/gpio.h **** /** @brief General Purpose I/O control 
  11:../libDaisy/src/per/gpio.h ****  *  @details peripheral control over a single GPIO
  12:../libDaisy/src/per/gpio.h ****  *  @ingroup peripheral
  13:../libDaisy/src/per/gpio.h ****  *   
  14:../libDaisy/src/per/gpio.h ****  *  Button Input (with internal Pullup resistor)
  15:../libDaisy/src/per/gpio.h ****  *  @include GPIO_Input.cpp 
  16:../libDaisy/src/per/gpio.h ****  * 
  17:../libDaisy/src/per/gpio.h ****  *  Output Example (perfect for blinking an LED)
  18:../libDaisy/src/per/gpio.h ****  *  @include GPIO_Output.cpp
  19:../libDaisy/src/per/gpio.h ****  * 
  20:../libDaisy/src/per/gpio.h **** */
  21:../libDaisy/src/per/gpio.h **** class GPIO
  22:../libDaisy/src/per/gpio.h **** {
  23:../libDaisy/src/per/gpio.h ****   public:
  24:../libDaisy/src/per/gpio.h ****     /** @brief Mode of operation for the specified GPIO */
  25:../libDaisy/src/per/gpio.h ****     enum class Mode
  26:../libDaisy/src/per/gpio.h ****     {
  27:../libDaisy/src/per/gpio.h ****         INPUT,      /**< Input for reading state of pin */
  28:../libDaisy/src/per/gpio.h ****         OUTPUT,     /**< Output w/ push-pull configuration */
  29:../libDaisy/src/per/gpio.h ****         OPEN_DRAIN, /**< Output w/ open-drain configuration */
  30:../libDaisy/src/per/gpio.h ****         ANALOG,     /**< Analog for connection to ADC or DAC peripheral */
  31:../libDaisy/src/per/gpio.h ****     };
  32:../libDaisy/src/per/gpio.h **** 
  33:../libDaisy/src/per/gpio.h ****     /** @brief Configures whether an internal Pull up or Pull down resistor is used. 
  34:../libDaisy/src/per/gpio.h ****      *  
ARM GAS  C:\Users\skipi\AppData\Local\Temp\ccS8HZje.s 			page 50


  35:../libDaisy/src/per/gpio.h ****      * Internal Pull up/down resistors are typically 40k ohms, and will be between
  36:../libDaisy/src/per/gpio.h ****      * 30k and 50k
  37:../libDaisy/src/per/gpio.h ****      * 
  38:../libDaisy/src/per/gpio.h ****      * When the Pin is configured in Analog mode, the pull up/down resistors are
  39:../libDaisy/src/per/gpio.h ****      * disabled by hardware. 
  40:../libDaisy/src/per/gpio.h ****      */
  41:../libDaisy/src/per/gpio.h ****     enum class Pull
  42:../libDaisy/src/per/gpio.h ****     {
  43:../libDaisy/src/per/gpio.h ****         NOPULL,   /**< No pull up resistor */
  44:../libDaisy/src/per/gpio.h ****         PULLUP,   /**< Internal pull up enabled */
  45:../libDaisy/src/per/gpio.h ****         PULLDOWN, /**< Internal pull down enabled*/
  46:../libDaisy/src/per/gpio.h ****     };
  47:../libDaisy/src/per/gpio.h **** 
  48:../libDaisy/src/per/gpio.h ****     /** @brief Output speed controls the drive strength, and slew rate of the pin */
  49:../libDaisy/src/per/gpio.h ****     enum class Speed
  50:../libDaisy/src/per/gpio.h ****     {
  51:../libDaisy/src/per/gpio.h ****         LOW,
  52:../libDaisy/src/per/gpio.h ****         MEDIUM,
  53:../libDaisy/src/per/gpio.h ****         HIGH,
  54:../libDaisy/src/per/gpio.h ****         VERY_HIGH,
  55:../libDaisy/src/per/gpio.h ****     };
  56:../libDaisy/src/per/gpio.h **** 
  57:../libDaisy/src/per/gpio.h ****     /** @brief Configuration for a given GPIO */
  58:../libDaisy/src/per/gpio.h ****     struct Config
  59:../libDaisy/src/per/gpio.h ****     {
  60:../libDaisy/src/per/gpio.h ****         Pin   pin;
  61:../libDaisy/src/per/gpio.h ****         Mode  mode;
  62:../libDaisy/src/per/gpio.h ****         Pull  pull;
  63:../libDaisy/src/per/gpio.h ****         Speed speed;
  64:../libDaisy/src/per/gpio.h **** 
  65:../libDaisy/src/per/gpio.h ****         /** Constructor with no arguments will prepare an invalid GPIO set as
  66:../libDaisy/src/per/gpio.h ****          *  an input, with no pullup. 
  67:../libDaisy/src/per/gpio.h ****          */
  68:../libDaisy/src/per/gpio.h ****         Config()
  69:../libDaisy/src/per/gpio.h ****         : pin(), mode(Mode::INPUT), pull(Pull::NOPULL), speed(Speed::LOW)
  70:../libDaisy/src/per/gpio.h ****         {
  71:../libDaisy/src/per/gpio.h ****         }
  72:../libDaisy/src/per/gpio.h ****     };
  73:../libDaisy/src/per/gpio.h **** 
  74:../libDaisy/src/per/gpio.h ****     GPIO() {}
 980              		.loc 15 74 5 is_stmt 1 view .LVU281
 981              	.LBB491:
 982              	.LBB492:
 983              	.LBI492:
  68:../libDaisy/src/per/gpio.h ****         : pin(), mode(Mode::INPUT), pull(Pull::NOPULL), speed(Speed::LOW)
 984              		.loc 15 68 9 view .LVU282
 985              	.LBB493:
 986              	.LBB494:
 987              	.LBB495:
 988              	.LBI495:
 989              		.loc 13 204 15 view .LVU283
 990              		.loc 13 204 15 is_stmt 0 view .LVU284
 991              	.LBE495:
 992              	.LBE494:
 993              	.LBE493:
 994              	.LBE492:
 995              	.LBE491:
ARM GAS  C:\Users\skipi\AppData\Local\Temp\ccS8HZje.s 			page 51


 996              	.LBE490:
 997              	.LBB504:
 998              	.LBI504:
 999              		.loc 15 74 5 is_stmt 1 view .LVU285
 1000              	.LBB505:
 1001              	.LBB506:
 1002              	.LBI506:
  68:../libDaisy/src/per/gpio.h ****         : pin(), mode(Mode::INPUT), pull(Pull::NOPULL), speed(Speed::LOW)
 1003              		.loc 15 68 9 view .LVU286
 1004              	.LBB507:
 1005              	.LBB508:
 1006              	.LBB509:
 1007              	.LBI509:
 1008              		.loc 13 204 15 view .LVU287
 1009              		.loc 13 204 15 is_stmt 0 view .LVU288
 1010              	.LBE509:
 1011              	.LBE508:
 1012              	.LBE507:
 1013              	.LBE506:
 1014              	.LBE505:
 1015              	.LBE504:
 1016              	.LBB518:
 1017              	.LBI518:
  96:../libDaisy/src/sys/system.h ****     ~System() {}
 1018              		.loc 3 96 5 is_stmt 1 view .LVU289
  96:../libDaisy/src/sys/system.h ****     ~System() {}
 1019              		.loc 3 96 5 is_stmt 0 view .LVU290
 1020              	.LBE518:
 1021              	.LBB519:
 1022              	.LBI519:
  20:../libDaisy/src/dev/codec_ak4556.h ****     ~Ak4556() {}
 1023              		.loc 2 20 5 is_stmt 1 view .LVU291
 1024              	.LBB520:
 1025              	.LBI520:
 1026              		.loc 15 74 5 view .LVU292
 1027              	.LBB521:
 1028              	.LBB522:
 1029              	.LBI522:
  68:../libDaisy/src/per/gpio.h ****         : pin(), mode(Mode::INPUT), pull(Pull::NOPULL), speed(Speed::LOW)
 1030              		.loc 15 68 9 view .LVU293
 1031              	.LBB523:
 1032              	.LBB524:
 1033              	.LBB525:
 1034              	.LBI525:
 1035              		.loc 13 204 15 view .LVU294
 1036              		.loc 13 204 15 is_stmt 0 view .LVU295
 1037              	.LBE525:
 1038              	.LBE524:
 1039              	.LBE523:
 1040              	.LBE522:
 1041              	.LBE521:
 1042              	.LBE520:
 1043              	.LBE519:
 1044              	.LBB536:
 1045              	.LBI536:
 1046              		.file 16 "../libDaisy/src/per/sai.h"
   1:../libDaisy/src/per/sai.h **** #pragma once
ARM GAS  C:\Users\skipi\AppData\Local\Temp\ccS8HZje.s 			page 52


   2:../libDaisy/src/per/sai.h **** #ifndef DSY_SAI_H
   3:../libDaisy/src/per/sai.h **** #define DSY_SAI_H
   4:../libDaisy/src/per/sai.h **** 
   5:../libDaisy/src/per/sai.h **** #include "util/hal_map.h"
   6:../libDaisy/src/per/sai.h **** #include "daisy_core.h"
   7:../libDaisy/src/per/sai.h **** 
   8:../libDaisy/src/per/sai.h **** namespace daisy
   9:../libDaisy/src/per/sai.h **** {
  10:../libDaisy/src/per/sai.h **** /** 
  11:../libDaisy/src/per/sai.h ****  * Support for I2S Audio Protocol with different bit-depth, samplerate options
  12:../libDaisy/src/per/sai.h ****  * Allows for master or slave, as well as freedom of selecting direction, 
  13:../libDaisy/src/per/sai.h ****  * and other behavior for each peripheral, and block.
  14:../libDaisy/src/per/sai.h ****  * 
  15:../libDaisy/src/per/sai.h ****  * DMA Transfer commands must use buffers located within non-cached memory or use cache maintenance
  16:../libDaisy/src/per/sai.h ****  * To declare an unitialized global element in the DMA memory section:
  17:../libDaisy/src/per/sai.h ****  *    int32_t DSY_DMA_BUFFER_SECTOR my_buffer[96];
  18:../libDaisy/src/per/sai.h ****  *
  19:../libDaisy/src/per/sai.h ****  * Callback functions will be called once per half of the buffer. In the above example, 
  20:../libDaisy/src/per/sai.h ****  * the callback function would be called once for every 48 samples.
  21:../libDaisy/src/per/sai.h ****  * 
  22:../libDaisy/src/per/sai.h ****  * Use SAI Handle like this:
  23:../libDaisy/src/per/sai.h ****  * 
  24:../libDaisy/src/per/sai.h ****  *  SaiHandle::Config sai_config;
  25:../libDaisy/src/per/sai.h ****  *  sai_config.periph          = SaiHandle::Config::Peripheral::SAI_1;
  26:../libDaisy/src/per/sai.h ****  *  sai_config.sr              = SaiHandle::Config::SampleRate::SAI_48KHZ;
  27:../libDaisy/src/per/sai.h ****  *  sai_config.bit_depth       = SaiHandle::Config::BitDepth::SAI_24BIT;
  28:../libDaisy/src/per/sai.h ****  *  sai_config.a_sync          = SaiHandle::Config::Sync::MASTER;
  29:../libDaisy/src/per/sai.h ****  *  sai_config.b_sync          = SaiHandle::Config::Sync::SLAVE;
  30:../libDaisy/src/per/sai.h ****  *  sai_config.a_dir           = SaiHandle::Config::Direction::RECEIVE;
  31:../libDaisy/src/per/sai.h ****  *  sai_config.b_dir           = SaiHandle::Config::Direction::TRANSMIT;
  32:../libDaisy/src/per/sai.h ****  *  sai_config.pin_config.fs   = {DSY_GPIOE, 4};
  33:../libDaisy/src/per/sai.h ****  *  sai_config.pin_config.mclk = {DSY_GPIOE, 2};
  34:../libDaisy/src/per/sai.h ****  *  sai_config.pin_config.sck  = {DSY_GPIOE, 5};
  35:../libDaisy/src/per/sai.h ****  *  sai_config.pin_config.sa   = {DSY_GPIOE, 6};
  36:../libDaisy/src/per/sai.h ****  *  sai_config.pin_config.sb   = {DSY_GPIOE, 3};
  37:../libDaisy/src/per/sai.h ****  *  // Then Initialize
  38:../libDaisy/src/per/sai.h ****  *  SaiHandle sai;
  39:../libDaisy/src/per/sai.h ****  *  sai.Init(sai_config);
  40:../libDaisy/src/per/sai.h ****  *  // Now you can use it:
  41:../libDaisy/src/per/sai.h ****  *  sai.StartDma(. . .);
  42:../libDaisy/src/per/sai.h ****  */
  43:../libDaisy/src/per/sai.h **** class SaiHandle
  44:../libDaisy/src/per/sai.h **** {
  45:../libDaisy/src/per/sai.h ****   public:
  46:../libDaisy/src/per/sai.h ****     /** Contains settings for initialising an SAI Interface */
  47:../libDaisy/src/per/sai.h ****     struct Config
  48:../libDaisy/src/per/sai.h ****     {
  49:../libDaisy/src/per/sai.h ****         /** Specifies the internal peripheral to use (mapped to different hardware pins) */
  50:../libDaisy/src/per/sai.h ****         enum class Peripheral
  51:../libDaisy/src/per/sai.h ****         {
  52:../libDaisy/src/per/sai.h ****             SAI_1,
  53:../libDaisy/src/per/sai.h ****             SAI_2,
  54:../libDaisy/src/per/sai.h ****         };
  55:../libDaisy/src/per/sai.h **** 
  56:../libDaisy/src/per/sai.h ****         /** Rate at which samples will be streaming to/from the device. */
  57:../libDaisy/src/per/sai.h ****         enum class SampleRate
  58:../libDaisy/src/per/sai.h ****         {
ARM GAS  C:\Users\skipi\AppData\Local\Temp\ccS8HZje.s 			page 53


  59:../libDaisy/src/per/sai.h ****             SAI_8KHZ,
  60:../libDaisy/src/per/sai.h ****             SAI_16KHZ,
  61:../libDaisy/src/per/sai.h ****             SAI_32KHZ,
  62:../libDaisy/src/per/sai.h ****             SAI_48KHZ,
  63:../libDaisy/src/per/sai.h ****             SAI_96KHZ,
  64:../libDaisy/src/per/sai.h ****         };
  65:../libDaisy/src/per/sai.h **** 
  66:../libDaisy/src/per/sai.h ****         /** Bit Depth that the hardware expects to be transferred to/from the device. */
  67:../libDaisy/src/per/sai.h ****         enum class BitDepth
  68:../libDaisy/src/per/sai.h ****         {
  69:../libDaisy/src/per/sai.h ****             SAI_16BIT,
  70:../libDaisy/src/per/sai.h ****             SAI_24BIT,
  71:../libDaisy/src/per/sai.h ****             SAI_32BIT,
  72:../libDaisy/src/per/sai.h ****         };
  73:../libDaisy/src/per/sai.h **** 
  74:../libDaisy/src/per/sai.h ****         /** Specifies whether a particular block is the master or the slave 
  75:../libDaisy/src/per/sai.h ****          ** If both are set to slave, no MCLK signal will be used, and it is
  76:../libDaisy/src/per/sai.h ****          ** expected that the codec will have its own xtal.
  77:../libDaisy/src/per/sai.h ****          */
  78:../libDaisy/src/per/sai.h ****         enum class Sync
  79:../libDaisy/src/per/sai.h ****         {
  80:../libDaisy/src/per/sai.h ****             MASTER,
  81:../libDaisy/src/per/sai.h ****             SLAVE,
  82:../libDaisy/src/per/sai.h ****         };
  83:../libDaisy/src/per/sai.h **** 
  84:../libDaisy/src/per/sai.h ****         /** Specifies the direction for each peripheral block. */
  85:../libDaisy/src/per/sai.h ****         enum class Direction
  86:../libDaisy/src/per/sai.h ****         {
  87:../libDaisy/src/per/sai.h ****             TRANSMIT,
  88:../libDaisy/src/per/sai.h ****             RECEIVE,
  89:../libDaisy/src/per/sai.h ****         };
  90:../libDaisy/src/per/sai.h **** 
  91:../libDaisy/src/per/sai.h ****         Peripheral periph;
  92:../libDaisy/src/per/sai.h ****         struct
  93:../libDaisy/src/per/sai.h ****         {
  94:../libDaisy/src/per/sai.h ****             Pin mclk, fs, sck, sa, sb;
  95:../libDaisy/src/per/sai.h ****         } pin_config;
  96:../libDaisy/src/per/sai.h ****         SampleRate sr;
  97:../libDaisy/src/per/sai.h ****         BitDepth   bit_depth;
  98:../libDaisy/src/per/sai.h ****         Sync       a_sync, b_sync;
  99:../libDaisy/src/per/sai.h ****         Direction  a_dir, b_dir;
 100:../libDaisy/src/per/sai.h ****     };
 101:../libDaisy/src/per/sai.h **** 
 102:../libDaisy/src/per/sai.h ****     /** Return values for SAI functions */
 103:../libDaisy/src/per/sai.h ****     enum class Result
 104:../libDaisy/src/per/sai.h ****     {
 105:../libDaisy/src/per/sai.h ****         OK,
 106:../libDaisy/src/per/sai.h ****         ERR,
 107:../libDaisy/src/per/sai.h ****     };
 108:../libDaisy/src/per/sai.h **** 
 109:../libDaisy/src/per/sai.h ****     SaiHandle() : pimpl_(nullptr) {}
 1047              		.loc 16 109 5 is_stmt 1 view .LVU296
 1048              	.LBE536:
 1049              	.LBE470:
 1050              	.LBE469:
 1051              	.LBE468:
 1052              	.LBE467:
ARM GAS  C:\Users\skipi\AppData\Local\Temp\ccS8HZje.s 			page 54


 1053              		.loc 11 145 1 is_stmt 0 view .LVU297
 1054 0000 38B5     		push	{r3, r4, r5, lr}
 1055              		.cfi_def_cfa_offset 16
 1056              		.cfi_offset 3, -16
 1057              		.cfi_offset 4, -12
 1058              		.cfi_offset 5, -8
 1059              		.cfi_offset 14, -4
 1060              	.LBB632:
 1061              	.LBB631:
 1062              	.LBB552:
 1063              	.LBB549:
 1064              	.LBB539:
 1065              	.LBB472:
 1066              	.LBB473:
 1067              		.loc 12 167 34 view .LVU298
 1068 0002 3848     		ldr	r0, .L71
 1069 0004 0024     		movs	r4, #0
 1070              	.LBE473:
 1071              	.LBE472:
 1072              	.LBE539:
  21:../libDaisy/src/daisy_seed.h ****     ~DaisySeed() {}
 1073              		.loc 1 21 17 view .LVU299
 1074 0006 4FF60B73 		movw	r3, #65291
 1075 000a 6FF0F411 		mvn	r1, #15991028
 1076              	.LBE549:
 1077              	.LBE552:
  11:main.cpp      **** DaisySeed       hw;
 1078              		.loc 11 11 17 view .LVU300
 1079 000e 364A     		ldr	r2, .L71+4
 1080              	.LBB553:
 1081              	.LBB550:
  21:../libDaisy/src/daisy_seed.h ****     ~DaisySeed() {}
 1082              		.loc 1 21 17 view .LVU301
 1083 0010 8365     		str	r3, [r0, #88]
 1084              	.LBB540:
 1085              	.LBB483:
 1086              	.LBB484:
  87:../libDaisy/src/hid/audio.h ****     ~AudioHandle() {}
 1087              		.loc 6 87 35 view .LVU302
 1088 0012 4461     		str	r4, [r0, #20]
 1089              	.LBE484:
 1090              	.LBE483:
 1091              	.LBE540:
 1092              	.LBB541:
 1093              	.LBB487:
 1094              	.LBB488:
 1095              		.loc 14 84 33 view .LVU303
 1096 0014 0462     		str	r4, [r0, #32]
 1097              	.LBE488:
 1098              	.LBE487:
 1099              	.LBE541:
 1100              	.LBB542:
 1101              	.LBB534:
 1102              	.LBB532:
 1103              	.LBB530:
 1104              	.LBB528:
 1105              	.LBB526:
ARM GAS  C:\Users\skipi\AppData\Local\Temp\ccS8HZje.s 			page 55


  69:../libDaisy/src/per/gpio.h ****         {
 1106              		.loc 15 69 73 view .LVU304
 1107 0016 4466     		str	r4, [r0, #100]
 1108              	.LBE526:
 1109              	.LBE528:
 1110              	.LBE530:
 1111              	.LBE532:
 1112              	.LBE534:
 1113              	.LBE542:
 1114              	.LBB543:
 1115              	.LBB537:
 1116              	.LBB538:
 1117              		.loc 16 109 33 view .LVU305
 1118 0018 0467     		str	r4, [r0, #112]
 1119              	.LVL64:
 1120              		.loc 16 109 33 view .LVU306
 1121              	.LBE538:
 1122              	.LBE537:
 1123              	.LBE543:
  21:../libDaisy/src/daisy_seed.h ****     ~DaisySeed() {}
 1124              		.loc 1 21 17 view .LVU307
 1125 001a C0E90041 		strd	r4, r1, [r0]
 1126 001e C0E90211 		strd	r1, r1, [r0, #8]
 1127              	.LBB544:
 1128              	.LBB502:
 1129              	.LBB500:
 1130              	.LBB498:
 1131              	.LBB496:
  69:../libDaisy/src/per/gpio.h ****         {
 1132              		.loc 15 69 73 view .LVU308
 1133 0022 C0E90A34 		strd	r3, r4, [r0, #40]
 1134              	.LBE496:
 1135              	.LBE498:
 1136              	.LBE500:
 1137              	.LBE502:
 1138              	.LBE544:
 1139              	.LBE550:
 1140              	.LBE553:
  11:main.cpp      **** DaisySeed       hw;
 1141              		.loc 11 11 17 view .LVU309
 1142 0026 3149     		ldr	r1, .L71+8
 1143              	.LBB554:
 1144              	.LBB551:
 1145              	.LBB545:
 1146              	.LBB516:
 1147              	.LBB514:
 1148              	.LBB512:
 1149              	.LBB510:
  69:../libDaisy/src/per/gpio.h ****         {
 1150              		.loc 15 69 73 view .LVU310
 1151 0028 C0E90F34 		strd	r3, r4, [r0, #60]
 1152              	.LBE510:
 1153              	.LBE512:
 1154              	.LBE514:
 1155              	.LBE516:
 1156              	.LBE545:
 1157              	.LBB546:
ARM GAS  C:\Users\skipi\AppData\Local\Temp\ccS8HZje.s 			page 56


 1158              	.LBB503:
 1159              	.LBB501:
 1160              	.LBB499:
 1161              	.LBB497:
 1162 002c C0E90C44 		strd	r4, r4, [r0, #48]
 1163              	.LBE497:
 1164              	.LBE499:
 1165              	.LBE501:
 1166              	.LBE503:
 1167              	.LBE546:
 1168              	.LBB547:
 1169              	.LBB517:
 1170              	.LBB515:
 1171              	.LBB513:
 1172              	.LBB511:
 1173 0030 C0E91144 		strd	r4, r4, [r0, #68]
 1174              	.LBE511:
 1175              	.LBE513:
 1176              	.LBE515:
 1177              	.LBE517:
 1178              	.LBE547:
 1179              	.LBB548:
 1180              	.LBB535:
 1181              	.LBB533:
 1182              	.LBB531:
 1183              	.LBB529:
 1184              	.LBB527:
 1185 0034 C0E91744 		strd	r4, r4, [r0, #92]
 1186              	.LBE527:
 1187              	.LBE529:
 1188              	.LBE531:
 1189              	.LBE533:
 1190              	.LBE535:
 1191              	.LBE548:
 1192              	.LBE551:
 1193              	.LBE554:
  11:main.cpp      **** DaisySeed       hw;
 1194              		.loc 11 11 17 view .LVU311
 1195 0038 FFF7FEFF 		bl	__aeabi_atexit
 1196              	.LVL65:
 1197              	.LBB555:
 1198              	.LBI555:
 155:../libDaisy/src/hid/midi.h ****     ~MidiHandler() {}
 1199              		.loc 7 155 5 is_stmt 1 view .LVU312
 1200              	.LBB556:
 1201              	.LBB557:
 1202              	.LBI557:
 157:../libDaisy/src/hid/midi.h **** 
 158:../libDaisy/src/hid/midi.h ****     struct Config
 1203              		.loc 7 158 12 view .LVU313
 1204              	.LBB558:
 1205              	.LBI558:
  44:../libDaisy/src/hid/usb_midi.h ****     };
 1206              		.loc 10 44 9 view .LVU314
  44:../libDaisy/src/hid/usb_midi.h ****     };
 1207              		.loc 10 44 9 is_stmt 0 view .LVU315
 1208              	.LBE558:
ARM GAS  C:\Users\skipi\AppData\Local\Temp\ccS8HZje.s 			page 57


 1209              	.LBE557:
 1210              	.LBB559:
 1211              	.LBI559:
  56:../libDaisy/src/hid/usb_midi.h ****     ~MidiUsbTransport() {}
 1212              		.loc 10 56 5 is_stmt 1 view .LVU316
  56:../libDaisy/src/hid/usb_midi.h ****     ~MidiUsbTransport() {}
 1213              		.loc 10 56 5 is_stmt 0 view .LVU317
 1214              	.LBE559:
 1215              	.LBB562:
 1216              	.LBI562:
  18:../libDaisy/src/hid/midi_parser.h ****     ~MidiParser() {}
 1217              		.loc 9 18 5 is_stmt 1 view .LVU318
  18:../libDaisy/src/hid/midi_parser.h ****     ~MidiParser() {}
 1218              		.loc 9 18 5 is_stmt 0 view .LVU319
 1219              	.LBE562:
 1220              	.LBB563:
 1221              	.LBI563:
 299:../libDaisy/src/util/FIFO.h **** {
 300:../libDaisy/src/util/FIFO.h ****   public:
 301:../libDaisy/src/util/FIFO.h ****     /** Creates an empty FIFO */
 302:../libDaisy/src/util/FIFO.h ****     FIFO() : FIFOBase<T>(buffer_, capacity + 1) {}
 1222              		.loc 8 302 5 is_stmt 1 view .LVU320
 1223              	.LBB564:
 1224              	.LBB565:
 1225              	.LBI565:
  14:../libDaisy/src/util/FIFO.h ****     : buffer_(buffer), bufferSize_(bufferSize), bufferIn_(0), bufferOut_(0)
 1226              		.loc 8 14 5 view .LVU321
 1227              	.LBE565:
 1228              	.LBE564:
 1229              	.LBE563:
 155:../libDaisy/src/hid/midi.h ****     ~MidiHandler() {}
 1230              		.loc 7 155 5 is_stmt 0 view .LVU322
 1231 003c 2C48     		ldr	r0, .L71+12
 1232 003e 2D4B     		ldr	r3, .L71+16
 1233 0040 4FF44072 		mov	r2, #768
 1234              	.LBB578:
 1235              	.LBB575:
 1236              	.LBB572:
 1237              	.LBB566:
 1238              	.LBB567:
  15:../libDaisy/src/util/FIFO.h ****     {
 1239              		.loc 8 15 75 view .LVU323
 1240 0044 00F1B405 		add	r5, r0, #180
 1241              	.LBE567:
 1242              	.LBE566:
 1243              	.LBE572:
 1244              	.LBE575:
 1245              	.LBE578:
 155:../libDaisy/src/hid/midi.h ****     ~MidiHandler() {}
 1246              		.loc 7 155 5 view .LVU324
 1247 0048 40F20F71 		movw	r1, #1807
 1248 004c C0F89C30 		str	r3, [r0, #156]
 1249              	.LBB579:
 1250              	.LBB576:
 1251              	.LBB573:
 1252              	.LBB570:
 1253              	.LBB568:
ARM GAS  C:\Users\skipi\AppData\Local\Temp\ccS8HZje.s 			page 58


  15:../libDaisy/src/util/FIFO.h ****     {
 1254              		.loc 8 15 75 view .LVU325
 1255 0050 40F20113 		movw	r3, #257
 1256 0054 C0F8B040 		str	r4, [r0, #176]
 1257              	.LVL66:
  15:../libDaisy/src/util/FIFO.h ****     {
 1258              		.loc 8 15 75 view .LVU326
 1259              	.LBE568:
 1260              	.LBE570:
 1261              	.LBE573:
 1262              	.LBE576:
 1263              	.LBE579:
 155:../libDaisy/src/hid/midi.h ****     ~MidiHandler() {}
 1264              		.loc 7 155 5 view .LVU327
 1265 0058 C0E92815 		strd	r1, r5, [r0, #160]
 1266              	.LBB580:
 1267              	.LBB560:
 1268              	.LBB561:
  56:../libDaisy/src/hid/usb_midi.h ****     ~MidiUsbTransport() {}
 1269              		.loc 10 56 40 view .LVU328
 1270 005c C0E90024 		strd	r2, r4, [r0]
 1271              	.LBE561:
 1272              	.LBE560:
 1273              	.LBE580:
 1274              	.LBE556:
 1275              	.LBE555:
  12:main.cpp      **** MidiUsbHandler  midi;
 1276              		.loc 11 12 17 view .LVU329
 1277 0060 2549     		ldr	r1, .L71+20
 1278 0062 214A     		ldr	r2, .L71+4
 1279              	.LBB583:
 1280              	.LBB582:
 1281              	.LBB581:
 1282              	.LBB577:
 1283              	.LBB574:
 1284              	.LBB571:
 1285              	.LBB569:
  15:../libDaisy/src/util/FIFO.h ****     {
 1286              		.loc 8 15 75 view .LVU330
 1287 0064 C0E92A34 		strd	r3, r4, [r0, #168]
 1288              	.LBE569:
 1289              	.LBE571:
 1290              	.LBE574:
 1291              	.LBE577:
 1292              	.LBE581:
 1293              	.LBE582:
 1294              	.LBE583:
  12:main.cpp      **** MidiUsbHandler  midi;
 1295              		.loc 11 12 17 view .LVU331
 1296 0068 FFF7FEFF 		bl	__aeabi_atexit
 1297              	.LVL67:
  13:main.cpp      **** AdcChannelConfig adcConfig[ADC_NUM + LDR_NUM]; 
 1298              		.loc 11 13 45 is_stmt 1 view .LVU332
 1299 006c 2349     		ldr	r1, .L71+24
 1300 006e 01F5137E 		add	lr, r1, #588
 1301              	.L65:
 1302              	.LVL68:
ARM GAS  C:\Users\skipi\AppData\Local\Temp\ccS8HZje.s 			page 59


 1303              	.LBB584:
 1304              	.LBI584:
  31:../libDaisy/src/per/adc.h **** {
 1305              		.loc 5 31 8 view .LVU333
 1306              	.LBB585:
 1307              	.LBB586:
 1308              	.LBI586:
 1309              		.loc 15 74 5 view .LVU334
 1310              	.LBB587:
 1311              	.LBI587:
  68:../libDaisy/src/per/gpio.h ****         : pin(), mode(Mode::INPUT), pull(Pull::NOPULL), speed(Speed::LOW)
 1312              		.loc 15 68 9 view .LVU335
 1313              	.LBB588:
 1314              	.LBB589:
 1315              	.LBI589:
 1316              		.loc 13 204 15 view .LVU336
 1317              	.LBE589:
  69:../libDaisy/src/per/gpio.h ****         {
 1318              		.loc 15 69 73 is_stmt 0 view .LVU337
 1319 0072 0022     		movs	r2, #0
 1320              	.LBB592:
 1321              	.LBB590:
 1322              		.loc 13 204 43 view .LVU338
 1323 0074 0B24     		movs	r4, #11
 1324 0076 FF20     		movs	r0, #255
 1325 0078 A1F13C03 		sub	r3, r1, #60
 1326 007c 01F8504C 		strb	r4, [r1, #-80]
 1327              	.LBE590:
 1328              	.LBE592:
  69:../libDaisy/src/per/gpio.h ****         {
 1329              		.loc 15 69 73 view .LVU339
 1330 0080 41F84C2C 		str	r2, [r1, #-76]
 1331              	.LBB593:
 1332              	.LBB591:
 1333              		.loc 13 204 43 view .LVU340
 1334 0084 01F84F0C 		strb	r0, [r1, #-79]
 1335              	.LVL69:
 1336              		.loc 13 204 43 view .LVU341
 1337              	.LBE591:
 1338              	.LBE593:
  69:../libDaisy/src/per/gpio.h ****         {
 1339              		.loc 15 69 73 view .LVU342
 1340 0088 41E91222 		strd	r2, r2, [r1, #-72]
 1341              	.LVL70:
  69:../libDaisy/src/per/gpio.h ****         {
 1342              		.loc 15 69 73 view .LVU343
 1343              	.LBE588:
 1344              	.LBE587:
 1345              	.LBE586:
  31:../libDaisy/src/per/adc.h **** {
 1346              		.loc 5 31 8 is_stmt 1 view .LVU344
 1347              	.L64:
 1348              	.LBB594:
 1349              	.LBI594:
 1350              		.loc 15 74 5 view .LVU345
 1351              	.LBB595:
 1352              	.LBI595:
ARM GAS  C:\Users\skipi\AppData\Local\Temp\ccS8HZje.s 			page 60


  68:../libDaisy/src/per/gpio.h ****         : pin(), mode(Mode::INPUT), pull(Pull::NOPULL), speed(Speed::LOW)
 1353              		.loc 15 68 9 view .LVU346
 1354              	.LBB596:
 1355              	.LBB597:
 1356              	.LBI597:
 1357              		.loc 13 204 15 view .LVU347
 1358              	.LBE597:
 1359              	.LBE596:
 1360              	.LBE595:
 1361              	.LBE594:
  31:../libDaisy/src/per/adc.h **** {
 1362              		.loc 5 31 8 is_stmt 0 view .LVU348
 1363 008c 1433     		adds	r3, r3, #20
 1364              	.LVL71:
 1365              	.LBB606:
 1366              	.LBB604:
 1367              	.LBB602:
  69:../libDaisy/src/per/gpio.h ****         {
 1368              		.loc 15 69 73 view .LVU349
 1369 008e 0022     		movs	r2, #0
 1370              	.LBB600:
 1371              	.LBB598:
 1372              		.loc 13 204 43 view .LVU350
 1373 0090 4FF00B0C 		mov	ip, #11
 1374 0094 FF20     		movs	r0, #255
 1375              	.LBE598:
 1376              	.LBE600:
 1377              	.LBE602:
 1378              	.LBE604:
 1379              	.LBE606:
  31:../libDaisy/src/per/adc.h **** {
 1380              		.loc 5 31 8 view .LVU351
 1381 0096 8B42     		cmp	r3, r1
 1382              	.LBB607:
 1383              	.LBB605:
 1384              	.LBB603:
  69:../libDaisy/src/per/gpio.h ****         {
 1385              		.loc 15 69 73 view .LVU352
 1386 0098 43F8102C 		str	r2, [r3, #-16]
 1387              	.LBB601:
 1388              	.LBB599:
 1389              		.loc 13 204 43 view .LVU353
 1390 009c 03F814CC 		strb	ip, [r3, #-20]
 1391 00a0 03F8130C 		strb	r0, [r3, #-19]
 1392              	.LVL72:
 1393              		.loc 13 204 43 view .LVU354
 1394              	.LBE599:
 1395              	.LBE601:
  69:../libDaisy/src/per/gpio.h ****         {
 1396              		.loc 15 69 73 view .LVU355
 1397 00a4 43E90322 		strd	r2, r2, [r3, #-12]
 1398              	.LVL73:
  69:../libDaisy/src/per/gpio.h ****         {
 1399              		.loc 15 69 73 view .LVU356
 1400              	.LBE603:
 1401              	.LBE605:
 1402              	.LBE607:
ARM GAS  C:\Users\skipi\AppData\Local\Temp\ccS8HZje.s 			page 61


  31:../libDaisy/src/per/adc.h **** {
 1403              		.loc 5 31 8 is_stmt 1 view .LVU357
  31:../libDaisy/src/per/adc.h **** {
 1404              		.loc 5 31 8 view .LVU358
 1405 00a8 F0D1     		bne	.L64
 1406              	.LVL74:
  31:../libDaisy/src/per/adc.h **** {
 1407              		.loc 5 31 8 is_stmt 0 view .LVU359
 1408              	.LBE585:
 1409              	.LBE584:
  13:main.cpp      **** AdcChannelConfig adcConfig[ADC_NUM + LDR_NUM]; 
 1410              		.loc 11 13 45 is_stmt 1 view .LVU360
  13:main.cpp      **** AdcChannelConfig adcConfig[ADC_NUM + LDR_NUM]; 
 1411              		.loc 11 13 45 view .LVU361
 1412 00aa 03F15401 		add	r1, r3, #84
 1413 00ae 7145     		cmp	r1, lr
 1414 00b0 DFD1     		bne	.L65
 1415              	.LVL75:
 1416              	.LBB608:
 1417              	.LBI608:
 1418              		.loc 15 74 5 view .LVU362
 1419              	.LBB609:
 1420              	.LBB610:
 1421              	.LBI610:
  68:../libDaisy/src/per/gpio.h ****         : pin(), mode(Mode::INPUT), pull(Pull::NOPULL), speed(Speed::LOW)
 1422              		.loc 15 68 9 view .LVU363
 1423              	.LBB611:
 1424              	.LBB612:
 1425              	.LBB613:
 1426              	.LBI613:
 1427              		.loc 13 204 15 view .LVU364
 1428              		.loc 13 204 15 is_stmt 0 view .LVU365
 1429 00b2 134B     		ldr	r3, .L71+28
 1430              	.LBE613:
 1431              	.LBE612:
 1432              	.LBE611:
 1433              	.LBE610:
 1434              		.loc 15 74 12 view .LVU366
 1435 00b4 4FF60B70 		movw	r0, #65291
 1436 00b8 1249     		ldr	r1, .L71+32
 1437 00ba 03F17804 		add	r4, r3, #120
 1438 00be C1E90002 		strd	r0, r2, [r1]
 1439              	.LBB616:
 1440              	.LBB615:
 1441              	.LBB614:
  69:../libDaisy/src/per/gpio.h ****         {
 1442              		.loc 15 69 73 view .LVU367
 1443 00c2 C1E90222 		strd	r2, r2, [r1, #8]
 1444              	.LVL76:
  69:../libDaisy/src/per/gpio.h ****         {
 1445              		.loc 15 69 73 view .LVU368
 1446              	.LBE614:
 1447              	.LBE615:
 1448              	.LBE616:
 1449              	.LBE609:
 1450              	.LBE608:
  16:main.cpp      **** GPIO leds[6]; // Array per gestire i LED in modo ciclico
ARM GAS  C:\Users\skipi\AppData\Local\Temp\ccS8HZje.s 			page 62


 1451              		.loc 11 16 12 is_stmt 1 view .LVU369
 1452              	.L66:
 1453              	.LBB617:
 1454              	.LBI617:
 1455              		.loc 15 74 5 view .LVU370
 1456              	.LBB618:
 1457              	.LBI618:
  68:../libDaisy/src/per/gpio.h ****         : pin(), mode(Mode::INPUT), pull(Pull::NOPULL), speed(Speed::LOW)
 1458              		.loc 15 68 9 view .LVU371
 1459              	.LBB619:
 1460              	.LBB620:
 1461              	.LBI620:
 1462              		.loc 13 204 15 view .LVU372
 1463              	.LBE620:
 1464              	.LBE619:
 1465              	.LBE618:
 1466              	.LBE617:
  16:main.cpp      **** GPIO leds[6]; // Array per gestire i LED in modo ciclico
 1467              		.loc 11 16 12 is_stmt 0 view .LVU373
 1468 00c6 1433     		adds	r3, r3, #20
 1469              	.LVL77:
 1470              	.LBB629:
 1471              	.LBB627:
 1472              	.LBB625:
  69:../libDaisy/src/per/gpio.h ****         {
 1473              		.loc 15 69 73 view .LVU374
 1474 00c8 0022     		movs	r2, #0
 1475              	.LBB623:
 1476              	.LBB621:
 1477              		.loc 13 204 43 view .LVU375
 1478 00ca 0B20     		movs	r0, #11
 1479 00cc FF21     		movs	r1, #255
 1480              	.LBE621:
 1481              	.LBE623:
 1482              	.LBE625:
 1483              	.LBE627:
 1484              	.LBE629:
  16:main.cpp      **** GPIO leds[6]; // Array per gestire i LED in modo ciclico
 1485              		.loc 11 16 12 view .LVU376
 1486 00ce A342     		cmp	r3, r4
 1487              	.LBB630:
 1488              	.LBB628:
 1489              	.LBB626:
  69:../libDaisy/src/per/gpio.h ****         {
 1490              		.loc 15 69 73 view .LVU377
 1491 00d0 43F8102C 		str	r2, [r3, #-16]
 1492              	.LBB624:
 1493              	.LBB622:
 1494              		.loc 13 204 43 view .LVU378
 1495 00d4 03F8140C 		strb	r0, [r3, #-20]
 1496 00d8 03F8131C 		strb	r1, [r3, #-19]
 1497              	.LVL78:
 1498              		.loc 13 204 43 view .LVU379
 1499              	.LBE622:
 1500              	.LBE624:
  69:../libDaisy/src/per/gpio.h ****         {
 1501              		.loc 15 69 73 view .LVU380
ARM GAS  C:\Users\skipi\AppData\Local\Temp\ccS8HZje.s 			page 63


 1502 00dc 43E90322 		strd	r2, r2, [r3, #-12]
 1503              	.LVL79:
  69:../libDaisy/src/per/gpio.h ****         {
 1504              		.loc 15 69 73 view .LVU381
 1505              	.LBE626:
 1506              	.LBE628:
 1507              	.LBE630:
  16:main.cpp      **** GPIO leds[6]; // Array per gestire i LED in modo ciclico
 1508              		.loc 11 16 12 is_stmt 1 view .LVU382
  16:main.cpp      **** GPIO leds[6]; // Array per gestire i LED in modo ciclico
 1509              		.loc 11 16 12 view .LVU383
 1510 00e0 F1D1     		bne	.L66
 1511              	.LBE631:
 1512              	.LBE632:
 1513              		.loc 11 145 1 is_stmt 0 view .LVU384
 1514 00e2 38BD     		pop	{r3, r4, r5, pc}
 1515              	.L72:
 1516              		.align	2
 1517              	.L71:
 1518 00e4 00000000 		.word	.LANCHOR1
 1519 00e8 00000000 		.word	__dso_handle
 1520 00ec 00000000 		.word	_ZN5daisy9DaisySeedD1Ev
 1521 00f0 00000000 		.word	midi
 1522 00f4 0080707F 		.word	2138079232
 1523 00f8 00000000 		.word	_ZN5daisy11MidiHandlerINS_16MidiUsbTransportEED1Ev
 1524 00fc 50000000 		.word	.LANCHOR0+80
 1525 0100 00000000 		.word	.LANCHOR4
 1526 0104 00000000 		.word	.LANCHOR3
 1527              		.cfi_endproc
 1528              	.LFE5499:
 1530              		.section	.init_array,"aw",%init_array
 1531              		.align	2
 1532 0000 00000000 		.word	_GLOBAL__sub_I_hw(target1)
 1533              		.global	leds
 1534              		.global	button
 1535              		.global	adcConfig
 1536              		.global	midi
 1537              		.global	hw
 1538              		.section	.bss.adcConfig,"aw",%nobits
 1539              		.align	2
 1540              		.set	.LANCHOR0,. + 0
 1543              	adcConfig:
 1544 0000 00000000 		.space	588
 1544      00000000 
 1544      00000000 
 1544      00000000 
 1544      00000000 
 1545              		.section	.bss.button,"aw",%nobits
 1546              		.align	2
 1547              		.set	.LANCHOR3,. + 0
 1550              	button:
 1551 0000 00000000 		.space	20
 1551      00000000 
 1551      00000000 
 1551      00000000 
 1551      00000000 
 1552              		.section	.bss.hw,"aw",%nobits
ARM GAS  C:\Users\skipi\AppData\Local\Temp\ccS8HZje.s 			page 64


 1553              		.align	2
 1554              		.set	.LANCHOR1,. + 0
 1557              	hw:
 1558 0000 00000000 		.space	116
 1558      00000000 
 1558      00000000 
 1558      00000000 
 1558      00000000 
 1559              		.section	.bss.leds,"aw",%nobits
 1560              		.align	2
 1561              		.set	.LANCHOR4,. + 0
 1564              	leds:
 1565 0000 00000000 		.space	120
 1565      00000000 
 1565      00000000 
 1565      00000000 
 1565      00000000 
 1566              		.section	.bss.midi,"aw",%nobits
 1567              		.align	2
 1570              	midi:
 1571 0000 00000000 		.space	37188
 1571      00000000 
 1571      00000000 
 1571      00000000 
 1571      00000000 
 1572              		.section	.rodata._ZN5daisy4seedL2D0E,"a"
 1573              		.align	2
 1574              		.set	.LANCHOR2,. + 0
 1577              	_ZN5daisy4seedL2D0E:
 1578 0000 01       		.byte	1
 1579 0001 0C       		.byte	12
 1580              		.text
 1581              	.Letext0:
 1582              		.file 17 "c:\\program files\\daisytoolchain\\arm-none-eabi\\include\\machine\\_default_types.h"
 1583              		.file 18 "c:\\program files\\daisytoolchain\\arm-none-eabi\\include\\sys\\_stdint.h"
 1584              		.file 19 "c:\\program files\\daisytoolchain\\arm-none-eabi\\include\\stdint.h"
 1585              		.file 20 "c:\\program files\\daisytoolchain\\lib\\gcc\\arm-none-eabi\\10.2.1\\include\\stddef.h"
 1586              		.file 21 "c:\\program files\\daisytoolchain\\arm-none-eabi\\include\\c++\\10.2.1\\cmath"
 1587              		.file 22 "c:\\program files\\daisytoolchain\\arm-none-eabi\\include\\c++\\10.2.1\\bits\\std_abs.h"
 1588              		.file 23 "c:\\program files\\daisytoolchain\\arm-none-eabi\\include\\c++\\10.2.1\\cstdlib"
 1589              		.file 24 "c:\\program files\\daisytoolchain\\arm-none-eabi\\include\\c++\\10.2.1\\cstdint"
 1590              		.file 25 "c:\\program files\\daisytoolchain\\arm-none-eabi\\include\\c++\\10.2.1\\arm-none-eabi\\t
 1591              		.file 26 "c:\\program files\\daisytoolchain\\arm-none-eabi\\include\\c++\\10.2.1\\type_traits"
 1592              		.file 27 "c:\\program files\\daisytoolchain\\arm-none-eabi\\include\\c++\\10.2.1\\debug\\debug.h"
 1593              		.file 28 "c:\\program files\\daisytoolchain\\arm-none-eabi\\include\\c++\\10.2.1\\bits\\algorithmf
 1594              		.file 29 "c:\\program files\\daisytoolchain\\arm-none-eabi\\include\\c++\\10.2.1\\bits\\stl_pair.h
 1595              		.file 30 "c:\\program files\\daisytoolchain\\arm-none-eabi\\include\\c++\\10.2.1\\bits\\exception_
 1596              		.file 31 "c:\\program files\\daisytoolchain\\arm-none-eabi\\include\\c++\\10.2.1\\initializer_list
 1597              		.file 32 "c:\\program files\\daisytoolchain\\arm-none-eabi\\include\\c++\\10.2.1\\cstdarg"
 1598              		.file 33 "c:\\program files\\daisytoolchain\\arm-none-eabi\\include\\c++\\10.2.1\\cstdio"
 1599              		.file 34 "c:\\program files\\daisytoolchain\\arm-none-eabi\\include\\c++\\10.2.1\\cstring"
 1600              		.file 35 "c:\\program files\\daisytoolchain\\arm-none-eabi\\include\\c++\\10.2.1\\cstddef"
 1601              		.file 36 "c:\\program files\\daisytoolchain\\arm-none-eabi\\include\\c++\\10.2.1\\cwchar"
 1602              		.file 37 "c:\\program files\\daisytoolchain\\arm-none-eabi\\include\\c++\\10.2.1\\clocale"
 1603              		.file 38 "c:\\program files\\daisytoolchain\\arm-none-eabi\\include\\c++\\10.2.1\\bits\\basic_stri
 1604              		.file 39 "c:\\program files\\daisytoolchain\\arm-none-eabi\\include\\c++\\10.2.1\\bits\\stl_tempbu
 1605              		.file 40 "c:\\program files\\daisytoolchain\\arm-none-eabi\\include\\c++\\10.2.1\\bits\\predefined
ARM GAS  C:\Users\skipi\AppData\Local\Temp\ccS8HZje.s 			page 65


 1606              		.file 41 "c:\\program files\\daisytoolchain\\arm-none-eabi\\include\\sys\\_types.h"
 1607              		.file 42 "c:\\program files\\daisytoolchain\\arm-none-eabi\\include\\sys\\reent.h"
 1608              		.file 43 "c:\\program files\\daisytoolchain\\arm-none-eabi\\include\\sys\\lock.h"
 1609              		.file 44 "c:\\program files\\daisytoolchain\\arm-none-eabi\\include\\math.h"
 1610              		.file 45 "c:\\program files\\daisytoolchain\\arm-none-eabi\\include\\stdlib.h"
 1611              		.file 46 "c:\\program files\\daisytoolchain\\arm-none-eabi\\include\\c++\\10.2.1\\math.h"
 1612              		.file 47 "c:\\program files\\daisytoolchain\\arm-none-eabi\\include\\c++\\10.2.1\\stdlib.h"
 1613              		.file 48 "../libDaisy/src/per/tim.h"
 1614              		.file 49 "../libDaisy/src/hid/MidiEvent.h"
 1615              		.file 50 "../libDaisy/src/hid/logger_impl.h"
 1616              		.file 51 "../libDaisy/src/dev/max11300.h"
 1617              		.file 52 "../libDaisy/src/dev/sr_595.h"
 1618              		.file 53 "../libDaisy/src/util/wav_format.h"
 1619              		.file 54 "../libDaisy/src/hid/logger.h"
 1620              		.file 55 "../libDaisy/src/dev/sdram.h"
 1621              		.file 56 "c:\\program files\\daisytoolchain\\lib\\gcc\\arm-none-eabi\\10.2.1\\include\\stdarg.h"
 1622              		.file 57 "c:\\program files\\daisytoolchain\\arm-none-eabi\\include\\stdio.h"
 1623              		.file 58 "c:\\program files\\daisytoolchain\\arm-none-eabi\\include\\string.h"
 1624              		.file 59 "../libDaisy/Middlewares/Third_Party/FatFs/src/integer.h"
 1625              		.file 60 "../libDaisy/Middlewares/Third_Party/FatFs/src/ff.h"
 1626              		.file 61 "../DaisySP/Source/Control/adenv.h"
 1627              		.file 62 "../DaisySP/Source/Utility/dsp.h"
 1628              		.file 63 "c:\\program files\\daisytoolchain\\arm-none-eabi\\include\\wchar.h"
 1629              		.file 64 "c:\\program files\\daisytoolchain\\arm-none-eabi\\include\\locale.h"
 1630              		.file 65 "<built-in>"
ARM GAS  C:\Users\skipi\AppData\Local\Temp\ccS8HZje.s 			page 66

